
Tempomat_2.elf:     file format elf32-littlearm

Sections:
Idx Name          Size      VMA       LMA       File off  Algn
  0 .isr_vector   0000010c  08000000  08000000  00010000  2**0
                  CONTENTS, ALLOC, LOAD, READONLY, DATA
  1 .text         00003c50  0800010c  0800010c  0001010c  2**2
                  CONTENTS, ALLOC, LOAD, READONLY, CODE
  2 .rodata       00000040  08003d5c  08003d5c  00013d5c  2**2
                  CONTENTS, ALLOC, LOAD, READONLY, DATA
  3 .ARM.extab    00000000  08003d9c  08003d9c  00020010  2**0
                  CONTENTS
  4 .ARM          00000000  08003d9c  08003d9c  00020010  2**0
                  CONTENTS
  5 .preinit_array 00000000  08003d9c  08003d9c  00020010  2**0
                  CONTENTS, ALLOC, LOAD, DATA
  6 .init_array   00000004  08003d9c  08003d9c  00013d9c  2**2
                  CONTENTS, ALLOC, LOAD, DATA
  7 .fini_array   00000004  08003da0  08003da0  00013da0  2**2
                  CONTENTS, ALLOC, LOAD, DATA
  8 .data         00000010  20000000  08003da4  00020000  2**2
                  CONTENTS, ALLOC, LOAD, DATA
  9 .bss          000001bc  20000010  08003db4  00020010  2**2
                  ALLOC
 10 ._user_heap_stack 00000604  200001cc  08003db4  000201cc  2**0
                  ALLOC
 11 .ARM.attributes 00000029  00000000  00000000  00020010  2**0
                  CONTENTS, READONLY
 12 .debug_info   0000ba35  00000000  00000000  00020039  2**0
                  CONTENTS, READONLY, DEBUGGING
 13 .debug_abbrev 00002091  00000000  00000000  0002ba6e  2**0
                  CONTENTS, READONLY, DEBUGGING
 14 .debug_aranges 00000c50  00000000  00000000  0002db00  2**3
                  CONTENTS, READONLY, DEBUGGING
 15 .debug_ranges 00000b28  00000000  00000000  0002e750  2**3
                  CONTENTS, READONLY, DEBUGGING
 16 .debug_macro  00014e34  00000000  00000000  0002f278  2**0
                  CONTENTS, READONLY, DEBUGGING
 17 .debug_line   0000a4f7  00000000  00000000  000440ac  2**0
                  CONTENTS, READONLY, DEBUGGING
 18 .debug_str    00074325  00000000  00000000  0004e5a3  2**0
                  CONTENTS, READONLY, DEBUGGING
 19 .comment      0000007b  00000000  00000000  000c28c8  2**0
                  CONTENTS, READONLY
 20 .debug_frame  00003104  00000000  00000000  000c2944  2**2
                  CONTENTS, READONLY, DEBUGGING

Disassembly of section .text:

0800010c <__do_global_dtors_aux>:
 800010c:	b510      	push	{r4, lr}
 800010e:	4c05      	ldr	r4, [pc, #20]	; (8000124 <__do_global_dtors_aux+0x18>)
 8000110:	7823      	ldrb	r3, [r4, #0]
 8000112:	b933      	cbnz	r3, 8000122 <__do_global_dtors_aux+0x16>
 8000114:	4b04      	ldr	r3, [pc, #16]	; (8000128 <__do_global_dtors_aux+0x1c>)
 8000116:	b113      	cbz	r3, 800011e <__do_global_dtors_aux+0x12>
 8000118:	4804      	ldr	r0, [pc, #16]	; (800012c <__do_global_dtors_aux+0x20>)
 800011a:	f3af 8000 	nop.w
 800011e:	2301      	movs	r3, #1
 8000120:	7023      	strb	r3, [r4, #0]
 8000122:	bd10      	pop	{r4, pc}
 8000124:	20000010 	.word	0x20000010
 8000128:	00000000 	.word	0x00000000
 800012c:	08003d44 	.word	0x08003d44

08000130 <frame_dummy>:
 8000130:	b508      	push	{r3, lr}
 8000132:	4b03      	ldr	r3, [pc, #12]	; (8000140 <frame_dummy+0x10>)
 8000134:	b11b      	cbz	r3, 800013e <frame_dummy+0xe>
 8000136:	4903      	ldr	r1, [pc, #12]	; (8000144 <frame_dummy+0x14>)
 8000138:	4803      	ldr	r0, [pc, #12]	; (8000148 <frame_dummy+0x18>)
 800013a:	f3af 8000 	nop.w
 800013e:	bd08      	pop	{r3, pc}
 8000140:	00000000 	.word	0x00000000
 8000144:	20000014 	.word	0x20000014
 8000148:	08003d44 	.word	0x08003d44

0800014c <HAL_Init>:
 800014c:	b580      	push	{r7, lr}
 800014e:	af00      	add	r7, sp, #0
 8000150:	4b08      	ldr	r3, [pc, #32]	; (8000174 <HAL_Init+0x28>)
 8000152:	681b      	ldr	r3, [r3, #0]
 8000154:	4a07      	ldr	r2, [pc, #28]	; (8000174 <HAL_Init+0x28>)
 8000156:	f043 0310 	orr.w	r3, r3, #16
 800015a:	6013      	str	r3, [r2, #0]
 800015c:	2003      	movs	r0, #3
 800015e:	f000 fd9d 	bl	8000c9c <HAL_NVIC_SetPriorityGrouping>
 8000162:	2000      	movs	r0, #0
 8000164:	f000 f808 	bl	8000178 <HAL_InitTick>
 8000168:	f003 fab8 	bl	80036dc <HAL_MspInit>
 800016c:	2300      	movs	r3, #0
 800016e:	4618      	mov	r0, r3
 8000170:	bd80      	pop	{r7, pc}
 8000172:	bf00      	nop
 8000174:	40022000 	.word	0x40022000

08000178 <HAL_InitTick>:
 8000178:	b580      	push	{r7, lr}
 800017a:	b082      	sub	sp, #8
 800017c:	af00      	add	r7, sp, #0
 800017e:	6078      	str	r0, [r7, #4]
 8000180:	4b12      	ldr	r3, [pc, #72]	; (80001cc <HAL_InitTick+0x54>)
 8000182:	681a      	ldr	r2, [r3, #0]
 8000184:	4b12      	ldr	r3, [pc, #72]	; (80001d0 <HAL_InitTick+0x58>)
 8000186:	781b      	ldrb	r3, [r3, #0]
 8000188:	4619      	mov	r1, r3
 800018a:	f44f 737a 	mov.w	r3, #1000	; 0x3e8
 800018e:	fbb3 f3f1 	udiv	r3, r3, r1
 8000192:	fbb2 f3f3 	udiv	r3, r2, r3
 8000196:	4618      	mov	r0, r3
 8000198:	f000 fdb5 	bl	8000d06 <HAL_SYSTICK_Config>
 800019c:	4603      	mov	r3, r0
 800019e:	2b00      	cmp	r3, #0
 80001a0:	d001      	beq.n	80001a6 <HAL_InitTick+0x2e>
 80001a2:	2301      	movs	r3, #1
 80001a4:	e00e      	b.n	80001c4 <HAL_InitTick+0x4c>
 80001a6:	687b      	ldr	r3, [r7, #4]
 80001a8:	2b0f      	cmp	r3, #15
 80001aa:	d80a      	bhi.n	80001c2 <HAL_InitTick+0x4a>
 80001ac:	2200      	movs	r2, #0
 80001ae:	6879      	ldr	r1, [r7, #4]
 80001b0:	f04f 30ff 	mov.w	r0, #4294967295
 80001b4:	f000 fd7d 	bl	8000cb2 <HAL_NVIC_SetPriority>
 80001b8:	4a06      	ldr	r2, [pc, #24]	; (80001d4 <HAL_InitTick+0x5c>)
 80001ba:	687b      	ldr	r3, [r7, #4]
 80001bc:	6013      	str	r3, [r2, #0]
 80001be:	2300      	movs	r3, #0
 80001c0:	e000      	b.n	80001c4 <HAL_InitTick+0x4c>
 80001c2:	2301      	movs	r3, #1
 80001c4:	4618      	mov	r0, r3
 80001c6:	3708      	adds	r7, #8
 80001c8:	46bd      	mov	sp, r7
 80001ca:	bd80      	pop	{r7, pc}
 80001cc:	2000000c 	.word	0x2000000c
 80001d0:	20000004 	.word	0x20000004
 80001d4:	20000000 	.word	0x20000000

080001d8 <HAL_IncTick>:
 80001d8:	b480      	push	{r7}
 80001da:	af00      	add	r7, sp, #0
 80001dc:	4b05      	ldr	r3, [pc, #20]	; (80001f4 <HAL_IncTick+0x1c>)
 80001de:	781b      	ldrb	r3, [r3, #0]
 80001e0:	461a      	mov	r2, r3
 80001e2:	4b05      	ldr	r3, [pc, #20]	; (80001f8 <HAL_IncTick+0x20>)
 80001e4:	681b      	ldr	r3, [r3, #0]
 80001e6:	4413      	add	r3, r2
 80001e8:	4a03      	ldr	r2, [pc, #12]	; (80001f8 <HAL_IncTick+0x20>)
 80001ea:	6013      	str	r3, [r2, #0]
 80001ec:	bf00      	nop
 80001ee:	46bd      	mov	sp, r7
 80001f0:	bc80      	pop	{r7}
 80001f2:	4770      	bx	lr
 80001f4:	20000004 	.word	0x20000004
 80001f8:	20000054 	.word	0x20000054

080001fc <HAL_GetTick>:
 80001fc:	b480      	push	{r7}
 80001fe:	af00      	add	r7, sp, #0
 8000200:	4b02      	ldr	r3, [pc, #8]	; (800020c <HAL_GetTick+0x10>)
 8000202:	681b      	ldr	r3, [r3, #0]
 8000204:	4618      	mov	r0, r3
 8000206:	46bd      	mov	sp, r7
 8000208:	bc80      	pop	{r7}
 800020a:	4770      	bx	lr
 800020c:	20000054 	.word	0x20000054

08000210 <HAL_Delay>:
 8000210:	b580      	push	{r7, lr}
 8000212:	b084      	sub	sp, #16
 8000214:	af00      	add	r7, sp, #0
 8000216:	6078      	str	r0, [r7, #4]
 8000218:	f7ff fff0 	bl	80001fc <HAL_GetTick>
 800021c:	60b8      	str	r0, [r7, #8]
 800021e:	687b      	ldr	r3, [r7, #4]
 8000220:	60fb      	str	r3, [r7, #12]
 8000222:	68fb      	ldr	r3, [r7, #12]
 8000224:	f1b3 3fff 	cmp.w	r3, #4294967295
 8000228:	d005      	beq.n	8000236 <HAL_Delay+0x26>
 800022a:	4b09      	ldr	r3, [pc, #36]	; (8000250 <HAL_Delay+0x40>)
 800022c:	781b      	ldrb	r3, [r3, #0]
 800022e:	461a      	mov	r2, r3
 8000230:	68fb      	ldr	r3, [r7, #12]
 8000232:	4413      	add	r3, r2
 8000234:	60fb      	str	r3, [r7, #12]
 8000236:	bf00      	nop
 8000238:	f7ff ffe0 	bl	80001fc <HAL_GetTick>
 800023c:	4602      	mov	r2, r0
 800023e:	68bb      	ldr	r3, [r7, #8]
 8000240:	1ad3      	subs	r3, r2, r3
 8000242:	68fa      	ldr	r2, [r7, #12]
 8000244:	429a      	cmp	r2, r3
 8000246:	d8f7      	bhi.n	8000238 <HAL_Delay+0x28>
 8000248:	bf00      	nop
 800024a:	3710      	adds	r7, #16
 800024c:	46bd      	mov	sp, r7
 800024e:	bd80      	pop	{r7, pc}
 8000250:	20000004 	.word	0x20000004

08000254 <HAL_ADC_Init>:
 8000254:	b580      	push	{r7, lr}
 8000256:	b086      	sub	sp, #24
 8000258:	af00      	add	r7, sp, #0
 800025a:	6078      	str	r0, [r7, #4]
 800025c:	2300      	movs	r3, #0
 800025e:	75fb      	strb	r3, [r7, #23]
 8000260:	2300      	movs	r3, #0
 8000262:	613b      	str	r3, [r7, #16]
 8000264:	2300      	movs	r3, #0
 8000266:	60bb      	str	r3, [r7, #8]
 8000268:	2300      	movs	r3, #0
 800026a:	60fb      	str	r3, [r7, #12]
 800026c:	687b      	ldr	r3, [r7, #4]
 800026e:	2b00      	cmp	r3, #0
 8000270:	d101      	bne.n	8000276 <HAL_ADC_Init+0x22>
 8000272:	2301      	movs	r3, #1
 8000274:	e0be      	b.n	80003f4 <HAL_ADC_Init+0x1a0>
 8000276:	687b      	ldr	r3, [r7, #4]
 8000278:	689b      	ldr	r3, [r3, #8]
 800027a:	2b00      	cmp	r3, #0
 800027c:	687b      	ldr	r3, [r7, #4]
 800027e:	6a9b      	ldr	r3, [r3, #40]	; 0x28
 8000280:	2b00      	cmp	r3, #0
 8000282:	d109      	bne.n	8000298 <HAL_ADC_Init+0x44>
 8000284:	687b      	ldr	r3, [r7, #4]
 8000286:	2200      	movs	r2, #0
 8000288:	62da      	str	r2, [r3, #44]	; 0x2c
 800028a:	687b      	ldr	r3, [r7, #4]
 800028c:	2200      	movs	r2, #0
 800028e:	f883 2024 	strb.w	r2, [r3, #36]	; 0x24
 8000292:	6878      	ldr	r0, [r7, #4]
 8000294:	f002 fd8c 	bl	8002db0 <HAL_ADC_MspInit>
 8000298:	6878      	ldr	r0, [r7, #4]
 800029a:	f000 faf7 	bl	800088c <ADC_ConversionStop_Disable>
 800029e:	4603      	mov	r3, r0
 80002a0:	75fb      	strb	r3, [r7, #23]
 80002a2:	687b      	ldr	r3, [r7, #4]
 80002a4:	6a9b      	ldr	r3, [r3, #40]	; 0x28
 80002a6:	f003 0310 	and.w	r3, r3, #16
 80002aa:	2b00      	cmp	r3, #0
 80002ac:	f040 8099 	bne.w	80003e2 <HAL_ADC_Init+0x18e>
 80002b0:	7dfb      	ldrb	r3, [r7, #23]
 80002b2:	2b00      	cmp	r3, #0
 80002b4:	f040 8095 	bne.w	80003e2 <HAL_ADC_Init+0x18e>
 80002b8:	687b      	ldr	r3, [r7, #4]
 80002ba:	6a9b      	ldr	r3, [r3, #40]	; 0x28
 80002bc:	f423 5388 	bic.w	r3, r3, #4352	; 0x1100
 80002c0:	f023 0302 	bic.w	r3, r3, #2
 80002c4:	f043 0202 	orr.w	r2, r3, #2
 80002c8:	687b      	ldr	r3, [r7, #4]
 80002ca:	629a      	str	r2, [r3, #40]	; 0x28
 80002cc:	687b      	ldr	r3, [r7, #4]
 80002ce:	685a      	ldr	r2, [r3, #4]
 80002d0:	687b      	ldr	r3, [r7, #4]
 80002d2:	69db      	ldr	r3, [r3, #28]
 80002d4:	431a      	orrs	r2, r3
 80002d6:	687b      	ldr	r3, [r7, #4]
 80002d8:	7b1b      	ldrb	r3, [r3, #12]
 80002da:	005b      	lsls	r3, r3, #1
 80002dc:	4313      	orrs	r3, r2
 80002de:	68ba      	ldr	r2, [r7, #8]
 80002e0:	4313      	orrs	r3, r2
 80002e2:	60bb      	str	r3, [r7, #8]
 80002e4:	687b      	ldr	r3, [r7, #4]
 80002e6:	689b      	ldr	r3, [r3, #8]
 80002e8:	f5b3 7f80 	cmp.w	r3, #256	; 0x100
 80002ec:	d003      	beq.n	80002f6 <HAL_ADC_Init+0xa2>
 80002ee:	687b      	ldr	r3, [r7, #4]
 80002f0:	689b      	ldr	r3, [r3, #8]
 80002f2:	2b01      	cmp	r3, #1
 80002f4:	d102      	bne.n	80002fc <HAL_ADC_Init+0xa8>
 80002f6:	f44f 7380 	mov.w	r3, #256	; 0x100
 80002fa:	e000      	b.n	80002fe <HAL_ADC_Init+0xaa>
 80002fc:	2300      	movs	r3, #0
 80002fe:	693a      	ldr	r2, [r7, #16]
 8000300:	4313      	orrs	r3, r2
 8000302:	613b      	str	r3, [r7, #16]
 8000304:	687b      	ldr	r3, [r7, #4]
 8000306:	7d1b      	ldrb	r3, [r3, #20]
 8000308:	2b01      	cmp	r3, #1
 800030a:	d119      	bne.n	8000340 <HAL_ADC_Init+0xec>
 800030c:	687b      	ldr	r3, [r7, #4]
 800030e:	7b1b      	ldrb	r3, [r3, #12]
 8000310:	2b00      	cmp	r3, #0
 8000312:	d109      	bne.n	8000328 <HAL_ADC_Init+0xd4>
 8000314:	687b      	ldr	r3, [r7, #4]
 8000316:	699b      	ldr	r3, [r3, #24]
 8000318:	3b01      	subs	r3, #1
 800031a:	035a      	lsls	r2, r3, #13
 800031c:	693b      	ldr	r3, [r7, #16]
 800031e:	4313      	orrs	r3, r2
 8000320:	f443 6300 	orr.w	r3, r3, #2048	; 0x800
 8000324:	613b      	str	r3, [r7, #16]
 8000326:	e00b      	b.n	8000340 <HAL_ADC_Init+0xec>
 8000328:	687b      	ldr	r3, [r7, #4]
 800032a:	6a9b      	ldr	r3, [r3, #40]	; 0x28
 800032c:	f043 0220 	orr.w	r2, r3, #32
 8000330:	687b      	ldr	r3, [r7, #4]
 8000332:	629a      	str	r2, [r3, #40]	; 0x28
 8000334:	687b      	ldr	r3, [r7, #4]
 8000336:	6adb      	ldr	r3, [r3, #44]	; 0x2c
 8000338:	f043 0201 	orr.w	r2, r3, #1
 800033c:	687b      	ldr	r3, [r7, #4]
 800033e:	62da      	str	r2, [r3, #44]	; 0x2c
 8000340:	687b      	ldr	r3, [r7, #4]
 8000342:	681b      	ldr	r3, [r3, #0]
 8000344:	685b      	ldr	r3, [r3, #4]
 8000346:	f423 4169 	bic.w	r1, r3, #59648	; 0xe900
 800034a:	687b      	ldr	r3, [r7, #4]
 800034c:	681b      	ldr	r3, [r3, #0]
 800034e:	693a      	ldr	r2, [r7, #16]
 8000350:	430a      	orrs	r2, r1
 8000352:	605a      	str	r2, [r3, #4]
 8000354:	687b      	ldr	r3, [r7, #4]
 8000356:	681b      	ldr	r3, [r3, #0]
 8000358:	689a      	ldr	r2, [r3, #8]
 800035a:	4b28      	ldr	r3, [pc, #160]	; (80003fc <HAL_ADC_Init+0x1a8>)
 800035c:	4013      	ands	r3, r2
 800035e:	687a      	ldr	r2, [r7, #4]
 8000360:	6812      	ldr	r2, [r2, #0]
 8000362:	68b9      	ldr	r1, [r7, #8]
 8000364:	430b      	orrs	r3, r1
 8000366:	6093      	str	r3, [r2, #8]
 8000368:	687b      	ldr	r3, [r7, #4]
 800036a:	689b      	ldr	r3, [r3, #8]
 800036c:	f5b3 7f80 	cmp.w	r3, #256	; 0x100
 8000370:	d003      	beq.n	800037a <HAL_ADC_Init+0x126>
 8000372:	687b      	ldr	r3, [r7, #4]
 8000374:	689b      	ldr	r3, [r3, #8]
 8000376:	2b01      	cmp	r3, #1
 8000378:	d104      	bne.n	8000384 <HAL_ADC_Init+0x130>
 800037a:	687b      	ldr	r3, [r7, #4]
 800037c:	691b      	ldr	r3, [r3, #16]
 800037e:	3b01      	subs	r3, #1
 8000380:	051b      	lsls	r3, r3, #20
 8000382:	60fb      	str	r3, [r7, #12]
 8000384:	687b      	ldr	r3, [r7, #4]
 8000386:	681b      	ldr	r3, [r3, #0]
 8000388:	6adb      	ldr	r3, [r3, #44]	; 0x2c
 800038a:	f423 0170 	bic.w	r1, r3, #15728640	; 0xf00000
 800038e:	687b      	ldr	r3, [r7, #4]
 8000390:	681b      	ldr	r3, [r3, #0]
 8000392:	68fa      	ldr	r2, [r7, #12]
 8000394:	430a      	orrs	r2, r1
 8000396:	62da      	str	r2, [r3, #44]	; 0x2c
 8000398:	687b      	ldr	r3, [r7, #4]
 800039a:	681b      	ldr	r3, [r3, #0]
 800039c:	689a      	ldr	r2, [r3, #8]
 800039e:	4b18      	ldr	r3, [pc, #96]	; (8000400 <HAL_ADC_Init+0x1ac>)
 80003a0:	4013      	ands	r3, r2
 80003a2:	68ba      	ldr	r2, [r7, #8]
 80003a4:	429a      	cmp	r2, r3
 80003a6:	d10b      	bne.n	80003c0 <HAL_ADC_Init+0x16c>
 80003a8:	687b      	ldr	r3, [r7, #4]
 80003aa:	2200      	movs	r2, #0
 80003ac:	62da      	str	r2, [r3, #44]	; 0x2c
 80003ae:	687b      	ldr	r3, [r7, #4]
 80003b0:	6a9b      	ldr	r3, [r3, #40]	; 0x28
 80003b2:	f023 0303 	bic.w	r3, r3, #3
 80003b6:	f043 0201 	orr.w	r2, r3, #1
 80003ba:	687b      	ldr	r3, [r7, #4]
 80003bc:	629a      	str	r2, [r3, #40]	; 0x28
 80003be:	e018      	b.n	80003f2 <HAL_ADC_Init+0x19e>
 80003c0:	687b      	ldr	r3, [r7, #4]
 80003c2:	6a9b      	ldr	r3, [r3, #40]	; 0x28
 80003c4:	f023 0312 	bic.w	r3, r3, #18
 80003c8:	f043 0210 	orr.w	r2, r3, #16
 80003cc:	687b      	ldr	r3, [r7, #4]
 80003ce:	629a      	str	r2, [r3, #40]	; 0x28
 80003d0:	687b      	ldr	r3, [r7, #4]
 80003d2:	6adb      	ldr	r3, [r3, #44]	; 0x2c
 80003d4:	f043 0201 	orr.w	r2, r3, #1
 80003d8:	687b      	ldr	r3, [r7, #4]
 80003da:	62da      	str	r2, [r3, #44]	; 0x2c
 80003dc:	2301      	movs	r3, #1
 80003de:	75fb      	strb	r3, [r7, #23]
 80003e0:	e007      	b.n	80003f2 <HAL_ADC_Init+0x19e>
 80003e2:	687b      	ldr	r3, [r7, #4]
 80003e4:	6a9b      	ldr	r3, [r3, #40]	; 0x28
 80003e6:	f043 0210 	orr.w	r2, r3, #16
 80003ea:	687b      	ldr	r3, [r7, #4]
 80003ec:	629a      	str	r2, [r3, #40]	; 0x28
 80003ee:	2301      	movs	r3, #1
 80003f0:	75fb      	strb	r3, [r7, #23]
 80003f2:	7dfb      	ldrb	r3, [r7, #23]
 80003f4:	4618      	mov	r0, r3
 80003f6:	3718      	adds	r7, #24
 80003f8:	46bd      	mov	sp, r7
 80003fa:	bd80      	pop	{r7, pc}
 80003fc:	ffe1f7fd 	.word	0xffe1f7fd
 8000400:	ff1f0efe 	.word	0xff1f0efe

08000404 <HAL_ADC_Start_DMA>:
 8000404:	b580      	push	{r7, lr}
 8000406:	b086      	sub	sp, #24
 8000408:	af00      	add	r7, sp, #0
 800040a:	60f8      	str	r0, [r7, #12]
 800040c:	60b9      	str	r1, [r7, #8]
 800040e:	607a      	str	r2, [r7, #4]
 8000410:	2300      	movs	r3, #0
 8000412:	75fb      	strb	r3, [r7, #23]
 8000414:	68fb      	ldr	r3, [r7, #12]
 8000416:	681b      	ldr	r3, [r3, #0]
 8000418:	4a64      	ldr	r2, [pc, #400]	; (80005ac <HAL_ADC_Start_DMA+0x1a8>)
 800041a:	4293      	cmp	r3, r2
 800041c:	d004      	beq.n	8000428 <HAL_ADC_Start_DMA+0x24>
 800041e:	68fb      	ldr	r3, [r7, #12]
 8000420:	681b      	ldr	r3, [r3, #0]
 8000422:	4a63      	ldr	r2, [pc, #396]	; (80005b0 <HAL_ADC_Start_DMA+0x1ac>)
 8000424:	4293      	cmp	r3, r2
 8000426:	d106      	bne.n	8000436 <HAL_ADC_Start_DMA+0x32>
 8000428:	4b60      	ldr	r3, [pc, #384]	; (80005ac <HAL_ADC_Start_DMA+0x1a8>)
 800042a:	685b      	ldr	r3, [r3, #4]
 800042c:	f403 2370 	and.w	r3, r3, #983040	; 0xf0000
 8000430:	2b00      	cmp	r3, #0
 8000432:	f040 80b3 	bne.w	800059c <HAL_ADC_Start_DMA+0x198>
 8000436:	68fb      	ldr	r3, [r7, #12]
 8000438:	f893 3024 	ldrb.w	r3, [r3, #36]	; 0x24
 800043c:	2b01      	cmp	r3, #1
 800043e:	d101      	bne.n	8000444 <HAL_ADC_Start_DMA+0x40>
 8000440:	2302      	movs	r3, #2
 8000442:	e0ae      	b.n	80005a2 <HAL_ADC_Start_DMA+0x19e>
 8000444:	68fb      	ldr	r3, [r7, #12]
 8000446:	2201      	movs	r2, #1
 8000448:	f883 2024 	strb.w	r2, [r3, #36]	; 0x24
 800044c:	68f8      	ldr	r0, [r7, #12]
 800044e:	f000 f9cb 	bl	80007e8 <ADC_Enable>
 8000452:	4603      	mov	r3, r0
 8000454:	75fb      	strb	r3, [r7, #23]
 8000456:	7dfb      	ldrb	r3, [r7, #23]
 8000458:	2b00      	cmp	r3, #0
 800045a:	f040 809a 	bne.w	8000592 <HAL_ADC_Start_DMA+0x18e>
 800045e:	68fb      	ldr	r3, [r7, #12]
 8000460:	6a9b      	ldr	r3, [r3, #40]	; 0x28
 8000462:	f423 6370 	bic.w	r3, r3, #3840	; 0xf00
 8000466:	f023 0301 	bic.w	r3, r3, #1
 800046a:	f443 7280 	orr.w	r2, r3, #256	; 0x100
 800046e:	68fb      	ldr	r3, [r7, #12]
 8000470:	629a      	str	r2, [r3, #40]	; 0x28
 8000472:	68fb      	ldr	r3, [r7, #12]
 8000474:	681b      	ldr	r3, [r3, #0]
 8000476:	4a4e      	ldr	r2, [pc, #312]	; (80005b0 <HAL_ADC_Start_DMA+0x1ac>)
 8000478:	4293      	cmp	r3, r2
 800047a:	d105      	bne.n	8000488 <HAL_ADC_Start_DMA+0x84>
 800047c:	4b4b      	ldr	r3, [pc, #300]	; (80005ac <HAL_ADC_Start_DMA+0x1a8>)
 800047e:	685b      	ldr	r3, [r3, #4]
 8000480:	f403 2370 	and.w	r3, r3, #983040	; 0xf0000
 8000484:	2b00      	cmp	r3, #0
 8000486:	d115      	bne.n	80004b4 <HAL_ADC_Start_DMA+0xb0>
 8000488:	68fb      	ldr	r3, [r7, #12]
 800048a:	6a9b      	ldr	r3, [r3, #40]	; 0x28
 800048c:	f423 1280 	bic.w	r2, r3, #1048576	; 0x100000
 8000490:	68fb      	ldr	r3, [r7, #12]
 8000492:	629a      	str	r2, [r3, #40]	; 0x28
 8000494:	68fb      	ldr	r3, [r7, #12]
 8000496:	681b      	ldr	r3, [r3, #0]
 8000498:	685b      	ldr	r3, [r3, #4]
 800049a:	f403 6380 	and.w	r3, r3, #1024	; 0x400
 800049e:	2b00      	cmp	r3, #0
 80004a0:	d026      	beq.n	80004f0 <HAL_ADC_Start_DMA+0xec>
 80004a2:	68fb      	ldr	r3, [r7, #12]
 80004a4:	6a9b      	ldr	r3, [r3, #40]	; 0x28
 80004a6:	f423 5340 	bic.w	r3, r3, #12288	; 0x3000
 80004aa:	f443 5280 	orr.w	r2, r3, #4096	; 0x1000
 80004ae:	68fb      	ldr	r3, [r7, #12]
 80004b0:	629a      	str	r2, [r3, #40]	; 0x28
 80004b2:	e01d      	b.n	80004f0 <HAL_ADC_Start_DMA+0xec>
 80004b4:	68fb      	ldr	r3, [r7, #12]
 80004b6:	6a9b      	ldr	r3, [r3, #40]	; 0x28
 80004b8:	f443 1280 	orr.w	r2, r3, #1048576	; 0x100000
 80004bc:	68fb      	ldr	r3, [r7, #12]
 80004be:	629a      	str	r2, [r3, #40]	; 0x28
 80004c0:	68fb      	ldr	r3, [r7, #12]
 80004c2:	681b      	ldr	r3, [r3, #0]
 80004c4:	4a39      	ldr	r2, [pc, #228]	; (80005ac <HAL_ADC_Start_DMA+0x1a8>)
 80004c6:	4293      	cmp	r3, r2
 80004c8:	d004      	beq.n	80004d4 <HAL_ADC_Start_DMA+0xd0>
 80004ca:	68fb      	ldr	r3, [r7, #12]
 80004cc:	681b      	ldr	r3, [r3, #0]
 80004ce:	4a38      	ldr	r2, [pc, #224]	; (80005b0 <HAL_ADC_Start_DMA+0x1ac>)
 80004d0:	4293      	cmp	r3, r2
 80004d2:	d10d      	bne.n	80004f0 <HAL_ADC_Start_DMA+0xec>
 80004d4:	4b35      	ldr	r3, [pc, #212]	; (80005ac <HAL_ADC_Start_DMA+0x1a8>)
 80004d6:	685b      	ldr	r3, [r3, #4]
 80004d8:	f403 6380 	and.w	r3, r3, #1024	; 0x400
 80004dc:	2b00      	cmp	r3, #0
 80004de:	d007      	beq.n	80004f0 <HAL_ADC_Start_DMA+0xec>
 80004e0:	68fb      	ldr	r3, [r7, #12]
 80004e2:	6a9b      	ldr	r3, [r3, #40]	; 0x28
 80004e4:	f423 5340 	bic.w	r3, r3, #12288	; 0x3000
 80004e8:	f443 5280 	orr.w	r2, r3, #4096	; 0x1000
 80004ec:	68fb      	ldr	r3, [r7, #12]
 80004ee:	629a      	str	r2, [r3, #40]	; 0x28
 80004f0:	68fb      	ldr	r3, [r7, #12]
 80004f2:	6a9b      	ldr	r3, [r3, #40]	; 0x28
 80004f4:	f403 5380 	and.w	r3, r3, #4096	; 0x1000
 80004f8:	2b00      	cmp	r3, #0
 80004fa:	d006      	beq.n	800050a <HAL_ADC_Start_DMA+0x106>
 80004fc:	68fb      	ldr	r3, [r7, #12]
 80004fe:	6adb      	ldr	r3, [r3, #44]	; 0x2c
 8000500:	f023 0206 	bic.w	r2, r3, #6
 8000504:	68fb      	ldr	r3, [r7, #12]
 8000506:	62da      	str	r2, [r3, #44]	; 0x2c
 8000508:	e002      	b.n	8000510 <HAL_ADC_Start_DMA+0x10c>
 800050a:	68fb      	ldr	r3, [r7, #12]
 800050c:	2200      	movs	r2, #0
 800050e:	62da      	str	r2, [r3, #44]	; 0x2c
 8000510:	68fb      	ldr	r3, [r7, #12]
 8000512:	2200      	movs	r2, #0
 8000514:	f883 2024 	strb.w	r2, [r3, #36]	; 0x24
 8000518:	68fb      	ldr	r3, [r7, #12]
 800051a:	6a1b      	ldr	r3, [r3, #32]
 800051c:	4a25      	ldr	r2, [pc, #148]	; (80005b4 <HAL_ADC_Start_DMA+0x1b0>)
 800051e:	629a      	str	r2, [r3, #40]	; 0x28
 8000520:	68fb      	ldr	r3, [r7, #12]
 8000522:	6a1b      	ldr	r3, [r3, #32]
 8000524:	4a24      	ldr	r2, [pc, #144]	; (80005b8 <HAL_ADC_Start_DMA+0x1b4>)
 8000526:	62da      	str	r2, [r3, #44]	; 0x2c
 8000528:	68fb      	ldr	r3, [r7, #12]
 800052a:	6a1b      	ldr	r3, [r3, #32]
 800052c:	4a23      	ldr	r2, [pc, #140]	; (80005bc <HAL_ADC_Start_DMA+0x1b8>)
 800052e:	631a      	str	r2, [r3, #48]	; 0x30
 8000530:	68fb      	ldr	r3, [r7, #12]
 8000532:	681b      	ldr	r3, [r3, #0]
 8000534:	f06f 0202 	mvn.w	r2, #2
 8000538:	601a      	str	r2, [r3, #0]
 800053a:	68fb      	ldr	r3, [r7, #12]
 800053c:	681b      	ldr	r3, [r3, #0]
 800053e:	689a      	ldr	r2, [r3, #8]
 8000540:	68fb      	ldr	r3, [r7, #12]
 8000542:	681b      	ldr	r3, [r3, #0]
 8000544:	f442 7280 	orr.w	r2, r2, #256	; 0x100
 8000548:	609a      	str	r2, [r3, #8]
 800054a:	68fb      	ldr	r3, [r7, #12]
 800054c:	6a18      	ldr	r0, [r3, #32]
 800054e:	68fb      	ldr	r3, [r7, #12]
 8000550:	681b      	ldr	r3, [r3, #0]
 8000552:	334c      	adds	r3, #76	; 0x4c
 8000554:	4619      	mov	r1, r3
 8000556:	68ba      	ldr	r2, [r7, #8]
 8000558:	687b      	ldr	r3, [r7, #4]
 800055a:	f000 fc3b 	bl	8000dd4 <HAL_DMA_Start_IT>
 800055e:	68fb      	ldr	r3, [r7, #12]
 8000560:	681b      	ldr	r3, [r3, #0]
 8000562:	689b      	ldr	r3, [r3, #8]
 8000564:	f403 2360 	and.w	r3, r3, #917504	; 0xe0000
 8000568:	f5b3 2f60 	cmp.w	r3, #917504	; 0xe0000
 800056c:	d108      	bne.n	8000580 <HAL_ADC_Start_DMA+0x17c>
 800056e:	68fb      	ldr	r3, [r7, #12]
 8000570:	681b      	ldr	r3, [r3, #0]
 8000572:	689a      	ldr	r2, [r3, #8]
 8000574:	68fb      	ldr	r3, [r7, #12]
 8000576:	681b      	ldr	r3, [r3, #0]
 8000578:	f442 02a0 	orr.w	r2, r2, #5242880	; 0x500000
 800057c:	609a      	str	r2, [r3, #8]
 800057e:	e00f      	b.n	80005a0 <HAL_ADC_Start_DMA+0x19c>
 8000580:	68fb      	ldr	r3, [r7, #12]
 8000582:	681b      	ldr	r3, [r3, #0]
 8000584:	689a      	ldr	r2, [r3, #8]
 8000586:	68fb      	ldr	r3, [r7, #12]
 8000588:	681b      	ldr	r3, [r3, #0]
 800058a:	f442 1280 	orr.w	r2, r2, #1048576	; 0x100000
 800058e:	609a      	str	r2, [r3, #8]
 8000590:	e006      	b.n	80005a0 <HAL_ADC_Start_DMA+0x19c>
 8000592:	68fb      	ldr	r3, [r7, #12]
 8000594:	2200      	movs	r2, #0
 8000596:	f883 2024 	strb.w	r2, [r3, #36]	; 0x24
 800059a:	e001      	b.n	80005a0 <HAL_ADC_Start_DMA+0x19c>
 800059c:	2301      	movs	r3, #1
 800059e:	75fb      	strb	r3, [r7, #23]
 80005a0:	7dfb      	ldrb	r3, [r7, #23]
 80005a2:	4618      	mov	r0, r3
 80005a4:	3718      	adds	r7, #24
 80005a6:	46bd      	mov	sp, r7
 80005a8:	bd80      	pop	{r7, pc}
 80005aa:	bf00      	nop
 80005ac:	40012400 	.word	0x40012400
 80005b0:	40012800 	.word	0x40012800
 80005b4:	08000901 	.word	0x08000901
 80005b8:	0800097d 	.word	0x0800097d
 80005bc:	08000999 	.word	0x08000999

080005c0 <HAL_ADC_ConvCpltCallback>:
 80005c0:	b480      	push	{r7}
 80005c2:	b083      	sub	sp, #12
 80005c4:	af00      	add	r7, sp, #0
 80005c6:	6078      	str	r0, [r7, #4]
 80005c8:	bf00      	nop
 80005ca:	370c      	adds	r7, #12
 80005cc:	46bd      	mov	sp, r7
 80005ce:	bc80      	pop	{r7}
 80005d0:	4770      	bx	lr

080005d2 <HAL_ADC_ConvHalfCpltCallback>:
 80005d2:	b480      	push	{r7}
 80005d4:	b083      	sub	sp, #12
 80005d6:	af00      	add	r7, sp, #0
 80005d8:	6078      	str	r0, [r7, #4]
 80005da:	bf00      	nop
 80005dc:	370c      	adds	r7, #12
 80005de:	46bd      	mov	sp, r7
 80005e0:	bc80      	pop	{r7}
 80005e2:	4770      	bx	lr

080005e4 <HAL_ADC_ErrorCallback>:
 80005e4:	b480      	push	{r7}
 80005e6:	b083      	sub	sp, #12
 80005e8:	af00      	add	r7, sp, #0
 80005ea:	6078      	str	r0, [r7, #4]
 80005ec:	bf00      	nop
 80005ee:	370c      	adds	r7, #12
 80005f0:	46bd      	mov	sp, r7
 80005f2:	bc80      	pop	{r7}
 80005f4:	4770      	bx	lr
	...

080005f8 <HAL_ADC_ConfigChannel>:
 80005f8:	b480      	push	{r7}
 80005fa:	b085      	sub	sp, #20
 80005fc:	af00      	add	r7, sp, #0
 80005fe:	6078      	str	r0, [r7, #4]
 8000600:	6039      	str	r1, [r7, #0]
 8000602:	2300      	movs	r3, #0
 8000604:	73fb      	strb	r3, [r7, #15]
 8000606:	2300      	movs	r3, #0
 8000608:	60bb      	str	r3, [r7, #8]
 800060a:	687b      	ldr	r3, [r7, #4]
 800060c:	f893 3024 	ldrb.w	r3, [r3, #36]	; 0x24
 8000610:	2b01      	cmp	r3, #1
 8000612:	d101      	bne.n	8000618 <HAL_ADC_ConfigChannel+0x20>
 8000614:	2302      	movs	r3, #2
 8000616:	e0dc      	b.n	80007d2 <HAL_ADC_ConfigChannel+0x1da>
 8000618:	687b      	ldr	r3, [r7, #4]
 800061a:	2201      	movs	r2, #1
 800061c:	f883 2024 	strb.w	r2, [r3, #36]	; 0x24
 8000620:	683b      	ldr	r3, [r7, #0]
 8000622:	685b      	ldr	r3, [r3, #4]
 8000624:	2b06      	cmp	r3, #6
 8000626:	d81c      	bhi.n	8000662 <HAL_ADC_ConfigChannel+0x6a>
 8000628:	687b      	ldr	r3, [r7, #4]
 800062a:	681b      	ldr	r3, [r3, #0]
 800062c:	6b59      	ldr	r1, [r3, #52]	; 0x34
 800062e:	683b      	ldr	r3, [r7, #0]
 8000630:	685a      	ldr	r2, [r3, #4]
 8000632:	4613      	mov	r3, r2
 8000634:	009b      	lsls	r3, r3, #2
 8000636:	4413      	add	r3, r2
 8000638:	3b05      	subs	r3, #5
 800063a:	221f      	movs	r2, #31
 800063c:	fa02 f303 	lsl.w	r3, r2, r3
 8000640:	43db      	mvns	r3, r3
 8000642:	4019      	ands	r1, r3
 8000644:	683b      	ldr	r3, [r7, #0]
 8000646:	6818      	ldr	r0, [r3, #0]
 8000648:	683b      	ldr	r3, [r7, #0]
 800064a:	685a      	ldr	r2, [r3, #4]
 800064c:	4613      	mov	r3, r2
 800064e:	009b      	lsls	r3, r3, #2
 8000650:	4413      	add	r3, r2
 8000652:	3b05      	subs	r3, #5
 8000654:	fa00 f203 	lsl.w	r2, r0, r3
 8000658:	687b      	ldr	r3, [r7, #4]
 800065a:	681b      	ldr	r3, [r3, #0]
 800065c:	430a      	orrs	r2, r1
 800065e:	635a      	str	r2, [r3, #52]	; 0x34
 8000660:	e03c      	b.n	80006dc <HAL_ADC_ConfigChannel+0xe4>
 8000662:	683b      	ldr	r3, [r7, #0]
 8000664:	685b      	ldr	r3, [r3, #4]
 8000666:	2b0c      	cmp	r3, #12
 8000668:	d81c      	bhi.n	80006a4 <HAL_ADC_ConfigChannel+0xac>
 800066a:	687b      	ldr	r3, [r7, #4]
 800066c:	681b      	ldr	r3, [r3, #0]
 800066e:	6b19      	ldr	r1, [r3, #48]	; 0x30
 8000670:	683b      	ldr	r3, [r7, #0]
 8000672:	685a      	ldr	r2, [r3, #4]
 8000674:	4613      	mov	r3, r2
 8000676:	009b      	lsls	r3, r3, #2
 8000678:	4413      	add	r3, r2
 800067a:	3b23      	subs	r3, #35	; 0x23
 800067c:	221f      	movs	r2, #31
 800067e:	fa02 f303 	lsl.w	r3, r2, r3
 8000682:	43db      	mvns	r3, r3
 8000684:	4019      	ands	r1, r3
 8000686:	683b      	ldr	r3, [r7, #0]
 8000688:	6818      	ldr	r0, [r3, #0]
 800068a:	683b      	ldr	r3, [r7, #0]
 800068c:	685a      	ldr	r2, [r3, #4]
 800068e:	4613      	mov	r3, r2
 8000690:	009b      	lsls	r3, r3, #2
 8000692:	4413      	add	r3, r2
 8000694:	3b23      	subs	r3, #35	; 0x23
 8000696:	fa00 f203 	lsl.w	r2, r0, r3
 800069a:	687b      	ldr	r3, [r7, #4]
 800069c:	681b      	ldr	r3, [r3, #0]
 800069e:	430a      	orrs	r2, r1
 80006a0:	631a      	str	r2, [r3, #48]	; 0x30
 80006a2:	e01b      	b.n	80006dc <HAL_ADC_ConfigChannel+0xe4>
 80006a4:	687b      	ldr	r3, [r7, #4]
 80006a6:	681b      	ldr	r3, [r3, #0]
 80006a8:	6ad9      	ldr	r1, [r3, #44]	; 0x2c
 80006aa:	683b      	ldr	r3, [r7, #0]
 80006ac:	685a      	ldr	r2, [r3, #4]
 80006ae:	4613      	mov	r3, r2
 80006b0:	009b      	lsls	r3, r3, #2
 80006b2:	4413      	add	r3, r2
 80006b4:	3b41      	subs	r3, #65	; 0x41
 80006b6:	221f      	movs	r2, #31
 80006b8:	fa02 f303 	lsl.w	r3, r2, r3
 80006bc:	43db      	mvns	r3, r3
 80006be:	4019      	ands	r1, r3
 80006c0:	683b      	ldr	r3, [r7, #0]
 80006c2:	6818      	ldr	r0, [r3, #0]
 80006c4:	683b      	ldr	r3, [r7, #0]
 80006c6:	685a      	ldr	r2, [r3, #4]
 80006c8:	4613      	mov	r3, r2
 80006ca:	009b      	lsls	r3, r3, #2
 80006cc:	4413      	add	r3, r2
 80006ce:	3b41      	subs	r3, #65	; 0x41
 80006d0:	fa00 f203 	lsl.w	r2, r0, r3
 80006d4:	687b      	ldr	r3, [r7, #4]
 80006d6:	681b      	ldr	r3, [r3, #0]
 80006d8:	430a      	orrs	r2, r1
 80006da:	62da      	str	r2, [r3, #44]	; 0x2c
 80006dc:	683b      	ldr	r3, [r7, #0]
 80006de:	681b      	ldr	r3, [r3, #0]
 80006e0:	2b09      	cmp	r3, #9
 80006e2:	d91c      	bls.n	800071e <HAL_ADC_ConfigChannel+0x126>
 80006e4:	687b      	ldr	r3, [r7, #4]
 80006e6:	681b      	ldr	r3, [r3, #0]
 80006e8:	68d9      	ldr	r1, [r3, #12]
 80006ea:	683b      	ldr	r3, [r7, #0]
 80006ec:	681a      	ldr	r2, [r3, #0]
 80006ee:	4613      	mov	r3, r2
 80006f0:	005b      	lsls	r3, r3, #1
 80006f2:	4413      	add	r3, r2
 80006f4:	3b1e      	subs	r3, #30
 80006f6:	2207      	movs	r2, #7
 80006f8:	fa02 f303 	lsl.w	r3, r2, r3
 80006fc:	43db      	mvns	r3, r3
 80006fe:	4019      	ands	r1, r3
 8000700:	683b      	ldr	r3, [r7, #0]
 8000702:	6898      	ldr	r0, [r3, #8]
 8000704:	683b      	ldr	r3, [r7, #0]
 8000706:	681a      	ldr	r2, [r3, #0]
 8000708:	4613      	mov	r3, r2
 800070a:	005b      	lsls	r3, r3, #1
 800070c:	4413      	add	r3, r2
 800070e:	3b1e      	subs	r3, #30
 8000710:	fa00 f203 	lsl.w	r2, r0, r3
 8000714:	687b      	ldr	r3, [r7, #4]
 8000716:	681b      	ldr	r3, [r3, #0]
 8000718:	430a      	orrs	r2, r1
 800071a:	60da      	str	r2, [r3, #12]
 800071c:	e019      	b.n	8000752 <HAL_ADC_ConfigChannel+0x15a>
 800071e:	687b      	ldr	r3, [r7, #4]
 8000720:	681b      	ldr	r3, [r3, #0]
 8000722:	6919      	ldr	r1, [r3, #16]
 8000724:	683b      	ldr	r3, [r7, #0]
 8000726:	681a      	ldr	r2, [r3, #0]
 8000728:	4613      	mov	r3, r2
 800072a:	005b      	lsls	r3, r3, #1
 800072c:	4413      	add	r3, r2
 800072e:	2207      	movs	r2, #7
 8000730:	fa02 f303 	lsl.w	r3, r2, r3
 8000734:	43db      	mvns	r3, r3
 8000736:	4019      	ands	r1, r3
 8000738:	683b      	ldr	r3, [r7, #0]
 800073a:	6898      	ldr	r0, [r3, #8]
 800073c:	683b      	ldr	r3, [r7, #0]
 800073e:	681a      	ldr	r2, [r3, #0]
 8000740:	4613      	mov	r3, r2
 8000742:	005b      	lsls	r3, r3, #1
 8000744:	4413      	add	r3, r2
 8000746:	fa00 f203 	lsl.w	r2, r0, r3
 800074a:	687b      	ldr	r3, [r7, #4]
 800074c:	681b      	ldr	r3, [r3, #0]
 800074e:	430a      	orrs	r2, r1
 8000750:	611a      	str	r2, [r3, #16]
 8000752:	683b      	ldr	r3, [r7, #0]
 8000754:	681b      	ldr	r3, [r3, #0]
 8000756:	2b10      	cmp	r3, #16
 8000758:	d003      	beq.n	8000762 <HAL_ADC_ConfigChannel+0x16a>
 800075a:	683b      	ldr	r3, [r7, #0]
 800075c:	681b      	ldr	r3, [r3, #0]
 800075e:	2b11      	cmp	r3, #17
 8000760:	d132      	bne.n	80007c8 <HAL_ADC_ConfigChannel+0x1d0>
 8000762:	687b      	ldr	r3, [r7, #4]
 8000764:	681b      	ldr	r3, [r3, #0]
 8000766:	4a1d      	ldr	r2, [pc, #116]	; (80007dc <HAL_ADC_ConfigChannel+0x1e4>)
 8000768:	4293      	cmp	r3, r2
 800076a:	d125      	bne.n	80007b8 <HAL_ADC_ConfigChannel+0x1c0>
 800076c:	687b      	ldr	r3, [r7, #4]
 800076e:	681b      	ldr	r3, [r3, #0]
 8000770:	689b      	ldr	r3, [r3, #8]
 8000772:	f403 0300 	and.w	r3, r3, #8388608	; 0x800000
 8000776:	2b00      	cmp	r3, #0
 8000778:	d126      	bne.n	80007c8 <HAL_ADC_ConfigChannel+0x1d0>
 800077a:	687b      	ldr	r3, [r7, #4]
 800077c:	681b      	ldr	r3, [r3, #0]
 800077e:	689a      	ldr	r2, [r3, #8]
 8000780:	687b      	ldr	r3, [r7, #4]
 8000782:	681b      	ldr	r3, [r3, #0]
 8000784:	f442 0200 	orr.w	r2, r2, #8388608	; 0x800000
 8000788:	609a      	str	r2, [r3, #8]
 800078a:	683b      	ldr	r3, [r7, #0]
 800078c:	681b      	ldr	r3, [r3, #0]
 800078e:	2b10      	cmp	r3, #16
 8000790:	d11a      	bne.n	80007c8 <HAL_ADC_ConfigChannel+0x1d0>
 8000792:	4b13      	ldr	r3, [pc, #76]	; (80007e0 <HAL_ADC_ConfigChannel+0x1e8>)
 8000794:	681b      	ldr	r3, [r3, #0]
 8000796:	4a13      	ldr	r2, [pc, #76]	; (80007e4 <HAL_ADC_ConfigChannel+0x1ec>)
 8000798:	fba2 2303 	umull	r2, r3, r2, r3
 800079c:	0c9a      	lsrs	r2, r3, #18
 800079e:	4613      	mov	r3, r2
 80007a0:	009b      	lsls	r3, r3, #2
 80007a2:	4413      	add	r3, r2
 80007a4:	005b      	lsls	r3, r3, #1
 80007a6:	60bb      	str	r3, [r7, #8]
 80007a8:	e002      	b.n	80007b0 <HAL_ADC_ConfigChannel+0x1b8>
 80007aa:	68bb      	ldr	r3, [r7, #8]
 80007ac:	3b01      	subs	r3, #1
 80007ae:	60bb      	str	r3, [r7, #8]
 80007b0:	68bb      	ldr	r3, [r7, #8]
 80007b2:	2b00      	cmp	r3, #0
 80007b4:	d1f9      	bne.n	80007aa <HAL_ADC_ConfigChannel+0x1b2>
 80007b6:	e007      	b.n	80007c8 <HAL_ADC_ConfigChannel+0x1d0>
 80007b8:	687b      	ldr	r3, [r7, #4]
 80007ba:	6a9b      	ldr	r3, [r3, #40]	; 0x28
 80007bc:	f043 0220 	orr.w	r2, r3, #32
 80007c0:	687b      	ldr	r3, [r7, #4]
 80007c2:	629a      	str	r2, [r3, #40]	; 0x28
 80007c4:	2301      	movs	r3, #1
 80007c6:	73fb      	strb	r3, [r7, #15]
 80007c8:	687b      	ldr	r3, [r7, #4]
 80007ca:	2200      	movs	r2, #0
 80007cc:	f883 2024 	strb.w	r2, [r3, #36]	; 0x24
 80007d0:	7bfb      	ldrb	r3, [r7, #15]
 80007d2:	4618      	mov	r0, r3
 80007d4:	3714      	adds	r7, #20
 80007d6:	46bd      	mov	sp, r7
 80007d8:	bc80      	pop	{r7}
 80007da:	4770      	bx	lr
 80007dc:	40012400 	.word	0x40012400
 80007e0:	2000000c 	.word	0x2000000c
 80007e4:	431bde83 	.word	0x431bde83

080007e8 <ADC_Enable>:
 80007e8:	b580      	push	{r7, lr}
 80007ea:	b084      	sub	sp, #16
 80007ec:	af00      	add	r7, sp, #0
 80007ee:	6078      	str	r0, [r7, #4]
 80007f0:	2300      	movs	r3, #0
 80007f2:	60fb      	str	r3, [r7, #12]
 80007f4:	2300      	movs	r3, #0
 80007f6:	60bb      	str	r3, [r7, #8]
 80007f8:	687b      	ldr	r3, [r7, #4]
 80007fa:	681b      	ldr	r3, [r3, #0]
 80007fc:	689b      	ldr	r3, [r3, #8]
 80007fe:	f003 0301 	and.w	r3, r3, #1
 8000802:	2b01      	cmp	r3, #1
 8000804:	d039      	beq.n	800087a <ADC_Enable+0x92>
 8000806:	687b      	ldr	r3, [r7, #4]
 8000808:	681b      	ldr	r3, [r3, #0]
 800080a:	689a      	ldr	r2, [r3, #8]
 800080c:	687b      	ldr	r3, [r7, #4]
 800080e:	681b      	ldr	r3, [r3, #0]
 8000810:	f042 0201 	orr.w	r2, r2, #1
 8000814:	609a      	str	r2, [r3, #8]
 8000816:	4b1b      	ldr	r3, [pc, #108]	; (8000884 <ADC_Enable+0x9c>)
 8000818:	681b      	ldr	r3, [r3, #0]
 800081a:	4a1b      	ldr	r2, [pc, #108]	; (8000888 <ADC_Enable+0xa0>)
 800081c:	fba2 2303 	umull	r2, r3, r2, r3
 8000820:	0c9b      	lsrs	r3, r3, #18
 8000822:	60bb      	str	r3, [r7, #8]
 8000824:	e002      	b.n	800082c <ADC_Enable+0x44>
 8000826:	68bb      	ldr	r3, [r7, #8]
 8000828:	3b01      	subs	r3, #1
 800082a:	60bb      	str	r3, [r7, #8]
 800082c:	68bb      	ldr	r3, [r7, #8]
 800082e:	2b00      	cmp	r3, #0
 8000830:	d1f9      	bne.n	8000826 <ADC_Enable+0x3e>
 8000832:	f7ff fce3 	bl	80001fc <HAL_GetTick>
 8000836:	60f8      	str	r0, [r7, #12]
 8000838:	e018      	b.n	800086c <ADC_Enable+0x84>
 800083a:	f7ff fcdf 	bl	80001fc <HAL_GetTick>
 800083e:	4602      	mov	r2, r0
 8000840:	68fb      	ldr	r3, [r7, #12]
 8000842:	1ad3      	subs	r3, r2, r3
 8000844:	2b02      	cmp	r3, #2
 8000846:	d911      	bls.n	800086c <ADC_Enable+0x84>
 8000848:	687b      	ldr	r3, [r7, #4]
 800084a:	6a9b      	ldr	r3, [r3, #40]	; 0x28
 800084c:	f043 0210 	orr.w	r2, r3, #16
 8000850:	687b      	ldr	r3, [r7, #4]
 8000852:	629a      	str	r2, [r3, #40]	; 0x28
 8000854:	687b      	ldr	r3, [r7, #4]
 8000856:	6adb      	ldr	r3, [r3, #44]	; 0x2c
 8000858:	f043 0201 	orr.w	r2, r3, #1
 800085c:	687b      	ldr	r3, [r7, #4]
 800085e:	62da      	str	r2, [r3, #44]	; 0x2c
 8000860:	687b      	ldr	r3, [r7, #4]
 8000862:	2200      	movs	r2, #0
 8000864:	f883 2024 	strb.w	r2, [r3, #36]	; 0x24
 8000868:	2301      	movs	r3, #1
 800086a:	e007      	b.n	800087c <ADC_Enable+0x94>
 800086c:	687b      	ldr	r3, [r7, #4]
 800086e:	681b      	ldr	r3, [r3, #0]
 8000870:	689b      	ldr	r3, [r3, #8]
 8000872:	f003 0301 	and.w	r3, r3, #1
 8000876:	2b01      	cmp	r3, #1
 8000878:	d1df      	bne.n	800083a <ADC_Enable+0x52>
 800087a:	2300      	movs	r3, #0
 800087c:	4618      	mov	r0, r3
 800087e:	3710      	adds	r7, #16
 8000880:	46bd      	mov	sp, r7
 8000882:	bd80      	pop	{r7, pc}
 8000884:	2000000c 	.word	0x2000000c
 8000888:	431bde83 	.word	0x431bde83

0800088c <ADC_ConversionStop_Disable>:
 800088c:	b580      	push	{r7, lr}
 800088e:	b084      	sub	sp, #16
 8000890:	af00      	add	r7, sp, #0
 8000892:	6078      	str	r0, [r7, #4]
 8000894:	2300      	movs	r3, #0
 8000896:	60fb      	str	r3, [r7, #12]
 8000898:	687b      	ldr	r3, [r7, #4]
 800089a:	681b      	ldr	r3, [r3, #0]
 800089c:	689b      	ldr	r3, [r3, #8]
 800089e:	f003 0301 	and.w	r3, r3, #1
 80008a2:	2b01      	cmp	r3, #1
 80008a4:	d127      	bne.n	80008f6 <ADC_ConversionStop_Disable+0x6a>
 80008a6:	687b      	ldr	r3, [r7, #4]
 80008a8:	681b      	ldr	r3, [r3, #0]
 80008aa:	689a      	ldr	r2, [r3, #8]
 80008ac:	687b      	ldr	r3, [r7, #4]
 80008ae:	681b      	ldr	r3, [r3, #0]
 80008b0:	f022 0201 	bic.w	r2, r2, #1
 80008b4:	609a      	str	r2, [r3, #8]
 80008b6:	f7ff fca1 	bl	80001fc <HAL_GetTick>
 80008ba:	60f8      	str	r0, [r7, #12]
 80008bc:	e014      	b.n	80008e8 <ADC_ConversionStop_Disable+0x5c>
 80008be:	f7ff fc9d 	bl	80001fc <HAL_GetTick>
 80008c2:	4602      	mov	r2, r0
 80008c4:	68fb      	ldr	r3, [r7, #12]
 80008c6:	1ad3      	subs	r3, r2, r3
 80008c8:	2b02      	cmp	r3, #2
 80008ca:	d90d      	bls.n	80008e8 <ADC_ConversionStop_Disable+0x5c>
 80008cc:	687b      	ldr	r3, [r7, #4]
 80008ce:	6a9b      	ldr	r3, [r3, #40]	; 0x28
 80008d0:	f043 0210 	orr.w	r2, r3, #16
 80008d4:	687b      	ldr	r3, [r7, #4]
 80008d6:	629a      	str	r2, [r3, #40]	; 0x28
 80008d8:	687b      	ldr	r3, [r7, #4]
 80008da:	6adb      	ldr	r3, [r3, #44]	; 0x2c
 80008dc:	f043 0201 	orr.w	r2, r3, #1
 80008e0:	687b      	ldr	r3, [r7, #4]
 80008e2:	62da      	str	r2, [r3, #44]	; 0x2c
 80008e4:	2301      	movs	r3, #1
 80008e6:	e007      	b.n	80008f8 <ADC_ConversionStop_Disable+0x6c>
 80008e8:	687b      	ldr	r3, [r7, #4]
 80008ea:	681b      	ldr	r3, [r3, #0]
 80008ec:	689b      	ldr	r3, [r3, #8]
 80008ee:	f003 0301 	and.w	r3, r3, #1
 80008f2:	2b01      	cmp	r3, #1
 80008f4:	d0e3      	beq.n	80008be <ADC_ConversionStop_Disable+0x32>
 80008f6:	2300      	movs	r3, #0
 80008f8:	4618      	mov	r0, r3
 80008fa:	3710      	adds	r7, #16
 80008fc:	46bd      	mov	sp, r7
 80008fe:	bd80      	pop	{r7, pc}

08000900 <ADC_DMAConvCplt>:
 8000900:	b580      	push	{r7, lr}
 8000902:	b084      	sub	sp, #16
 8000904:	af00      	add	r7, sp, #0
 8000906:	6078      	str	r0, [r7, #4]
 8000908:	687b      	ldr	r3, [r7, #4]
 800090a:	6a5b      	ldr	r3, [r3, #36]	; 0x24
 800090c:	60fb      	str	r3, [r7, #12]
 800090e:	68fb      	ldr	r3, [r7, #12]
 8000910:	6a9b      	ldr	r3, [r3, #40]	; 0x28
 8000912:	f003 0350 	and.w	r3, r3, #80	; 0x50
 8000916:	2b00      	cmp	r3, #0
 8000918:	d127      	bne.n	800096a <ADC_DMAConvCplt+0x6a>
 800091a:	68fb      	ldr	r3, [r7, #12]
 800091c:	6a9b      	ldr	r3, [r3, #40]	; 0x28
 800091e:	f443 7200 	orr.w	r2, r3, #512	; 0x200
 8000922:	68fb      	ldr	r3, [r7, #12]
 8000924:	629a      	str	r2, [r3, #40]	; 0x28
 8000926:	68fb      	ldr	r3, [r7, #12]
 8000928:	681b      	ldr	r3, [r3, #0]
 800092a:	689b      	ldr	r3, [r3, #8]
 800092c:	f403 2360 	and.w	r3, r3, #917504	; 0xe0000
 8000930:	f5b3 2f60 	cmp.w	r3, #917504	; 0xe0000
 8000934:	d115      	bne.n	8000962 <ADC_DMAConvCplt+0x62>
 8000936:	68fb      	ldr	r3, [r7, #12]
 8000938:	7b1b      	ldrb	r3, [r3, #12]
 800093a:	2b00      	cmp	r3, #0
 800093c:	d111      	bne.n	8000962 <ADC_DMAConvCplt+0x62>
 800093e:	68fb      	ldr	r3, [r7, #12]
 8000940:	6a9b      	ldr	r3, [r3, #40]	; 0x28
 8000942:	f423 7280 	bic.w	r2, r3, #256	; 0x100
 8000946:	68fb      	ldr	r3, [r7, #12]
 8000948:	629a      	str	r2, [r3, #40]	; 0x28
 800094a:	68fb      	ldr	r3, [r7, #12]
 800094c:	6a9b      	ldr	r3, [r3, #40]	; 0x28
 800094e:	f403 5380 	and.w	r3, r3, #4096	; 0x1000
 8000952:	2b00      	cmp	r3, #0
 8000954:	d105      	bne.n	8000962 <ADC_DMAConvCplt+0x62>
 8000956:	68fb      	ldr	r3, [r7, #12]
 8000958:	6a9b      	ldr	r3, [r3, #40]	; 0x28
 800095a:	f043 0201 	orr.w	r2, r3, #1
 800095e:	68fb      	ldr	r3, [r7, #12]
 8000960:	629a      	str	r2, [r3, #40]	; 0x28
 8000962:	68f8      	ldr	r0, [r7, #12]
 8000964:	f7ff fe2c 	bl	80005c0 <HAL_ADC_ConvCpltCallback>
 8000968:	e004      	b.n	8000974 <ADC_DMAConvCplt+0x74>
 800096a:	68fb      	ldr	r3, [r7, #12]
 800096c:	6a1b      	ldr	r3, [r3, #32]
 800096e:	6b1b      	ldr	r3, [r3, #48]	; 0x30
 8000970:	6878      	ldr	r0, [r7, #4]
 8000972:	4798      	blx	r3
 8000974:	bf00      	nop
 8000976:	3710      	adds	r7, #16
 8000978:	46bd      	mov	sp, r7
 800097a:	bd80      	pop	{r7, pc}

0800097c <ADC_DMAHalfConvCplt>:
 800097c:	b580      	push	{r7, lr}
 800097e:	b084      	sub	sp, #16
 8000980:	af00      	add	r7, sp, #0
 8000982:	6078      	str	r0, [r7, #4]
 8000984:	687b      	ldr	r3, [r7, #4]
 8000986:	6a5b      	ldr	r3, [r3, #36]	; 0x24
 8000988:	60fb      	str	r3, [r7, #12]
 800098a:	68f8      	ldr	r0, [r7, #12]
 800098c:	f7ff fe21 	bl	80005d2 <HAL_ADC_ConvHalfCpltCallback>
 8000990:	bf00      	nop
 8000992:	3710      	adds	r7, #16
 8000994:	46bd      	mov	sp, r7
 8000996:	bd80      	pop	{r7, pc}

08000998 <ADC_DMAError>:
 8000998:	b580      	push	{r7, lr}
 800099a:	b084      	sub	sp, #16
 800099c:	af00      	add	r7, sp, #0
 800099e:	6078      	str	r0, [r7, #4]
 80009a0:	687b      	ldr	r3, [r7, #4]
 80009a2:	6a5b      	ldr	r3, [r3, #36]	; 0x24
 80009a4:	60fb      	str	r3, [r7, #12]
 80009a6:	68fb      	ldr	r3, [r7, #12]
 80009a8:	6a9b      	ldr	r3, [r3, #40]	; 0x28
 80009aa:	f043 0240 	orr.w	r2, r3, #64	; 0x40
 80009ae:	68fb      	ldr	r3, [r7, #12]
 80009b0:	629a      	str	r2, [r3, #40]	; 0x28
 80009b2:	68fb      	ldr	r3, [r7, #12]
 80009b4:	6adb      	ldr	r3, [r3, #44]	; 0x2c
 80009b6:	f043 0204 	orr.w	r2, r3, #4
 80009ba:	68fb      	ldr	r3, [r7, #12]
 80009bc:	62da      	str	r2, [r3, #44]	; 0x2c
 80009be:	68f8      	ldr	r0, [r7, #12]
 80009c0:	f7ff fe10 	bl	80005e4 <HAL_ADC_ErrorCallback>
 80009c4:	bf00      	nop
 80009c6:	3710      	adds	r7, #16
 80009c8:	46bd      	mov	sp, r7
 80009ca:	bd80      	pop	{r7, pc}

080009cc <HAL_ADCEx_Calibration_Start>:
 80009cc:	b590      	push	{r4, r7, lr}
 80009ce:	b087      	sub	sp, #28
 80009d0:	af00      	add	r7, sp, #0
 80009d2:	6078      	str	r0, [r7, #4]
 80009d4:	2300      	movs	r3, #0
 80009d6:	75fb      	strb	r3, [r7, #23]
 80009d8:	2300      	movs	r3, #0
 80009da:	60fb      	str	r3, [r7, #12]
 80009dc:	687b      	ldr	r3, [r7, #4]
 80009de:	f893 3024 	ldrb.w	r3, [r3, #36]	; 0x24
 80009e2:	2b01      	cmp	r3, #1
 80009e4:	d101      	bne.n	80009ea <HAL_ADCEx_Calibration_Start+0x1e>
 80009e6:	2302      	movs	r3, #2
 80009e8:	e086      	b.n	8000af8 <HAL_ADCEx_Calibration_Start+0x12c>
 80009ea:	687b      	ldr	r3, [r7, #4]
 80009ec:	2201      	movs	r2, #1
 80009ee:	f883 2024 	strb.w	r2, [r3, #36]	; 0x24
 80009f2:	6878      	ldr	r0, [r7, #4]
 80009f4:	f7ff ff4a 	bl	800088c <ADC_ConversionStop_Disable>
 80009f8:	4603      	mov	r3, r0
 80009fa:	75fb      	strb	r3, [r7, #23]
 80009fc:	7dfb      	ldrb	r3, [r7, #23]
 80009fe:	2b00      	cmp	r3, #0
 8000a00:	d175      	bne.n	8000aee <HAL_ADCEx_Calibration_Start+0x122>
 8000a02:	687b      	ldr	r3, [r7, #4]
 8000a04:	6a9b      	ldr	r3, [r3, #40]	; 0x28
 8000a06:	f423 5388 	bic.w	r3, r3, #4352	; 0x1100
 8000a0a:	f023 0302 	bic.w	r3, r3, #2
 8000a0e:	f043 0202 	orr.w	r2, r3, #2
 8000a12:	687b      	ldr	r3, [r7, #4]
 8000a14:	629a      	str	r2, [r3, #40]	; 0x28
 8000a16:	4b3a      	ldr	r3, [pc, #232]	; (8000b00 <HAL_ADCEx_Calibration_Start+0x134>)
 8000a18:	681c      	ldr	r4, [r3, #0]
 8000a1a:	2002      	movs	r0, #2
 8000a1c:	f001 f9ce 	bl	8001dbc <HAL_RCCEx_GetPeriphCLKFreq>
 8000a20:	4603      	mov	r3, r0
 8000a22:	fbb4 f3f3 	udiv	r3, r4, r3
 8000a26:	005b      	lsls	r3, r3, #1
 8000a28:	60fb      	str	r3, [r7, #12]
 8000a2a:	e002      	b.n	8000a32 <HAL_ADCEx_Calibration_Start+0x66>
 8000a2c:	68fb      	ldr	r3, [r7, #12]
 8000a2e:	3b01      	subs	r3, #1
 8000a30:	60fb      	str	r3, [r7, #12]
 8000a32:	68fb      	ldr	r3, [r7, #12]
 8000a34:	2b00      	cmp	r3, #0
 8000a36:	d1f9      	bne.n	8000a2c <HAL_ADCEx_Calibration_Start+0x60>
 8000a38:	6878      	ldr	r0, [r7, #4]
 8000a3a:	f7ff fed5 	bl	80007e8 <ADC_Enable>
 8000a3e:	687b      	ldr	r3, [r7, #4]
 8000a40:	681b      	ldr	r3, [r3, #0]
 8000a42:	689a      	ldr	r2, [r3, #8]
 8000a44:	687b      	ldr	r3, [r7, #4]
 8000a46:	681b      	ldr	r3, [r3, #0]
 8000a48:	f042 0208 	orr.w	r2, r2, #8
 8000a4c:	609a      	str	r2, [r3, #8]
 8000a4e:	f7ff fbd5 	bl	80001fc <HAL_GetTick>
 8000a52:	6138      	str	r0, [r7, #16]
 8000a54:	e014      	b.n	8000a80 <HAL_ADCEx_Calibration_Start+0xb4>
 8000a56:	f7ff fbd1 	bl	80001fc <HAL_GetTick>
 8000a5a:	4602      	mov	r2, r0
 8000a5c:	693b      	ldr	r3, [r7, #16]
 8000a5e:	1ad3      	subs	r3, r2, r3
 8000a60:	2b0a      	cmp	r3, #10
 8000a62:	d90d      	bls.n	8000a80 <HAL_ADCEx_Calibration_Start+0xb4>
 8000a64:	687b      	ldr	r3, [r7, #4]
 8000a66:	6a9b      	ldr	r3, [r3, #40]	; 0x28
 8000a68:	f023 0312 	bic.w	r3, r3, #18
 8000a6c:	f043 0210 	orr.w	r2, r3, #16
 8000a70:	687b      	ldr	r3, [r7, #4]
 8000a72:	629a      	str	r2, [r3, #40]	; 0x28
 8000a74:	687b      	ldr	r3, [r7, #4]
 8000a76:	2200      	movs	r2, #0
 8000a78:	f883 2024 	strb.w	r2, [r3, #36]	; 0x24
 8000a7c:	2301      	movs	r3, #1
 8000a7e:	e03b      	b.n	8000af8 <HAL_ADCEx_Calibration_Start+0x12c>
 8000a80:	687b      	ldr	r3, [r7, #4]
 8000a82:	681b      	ldr	r3, [r3, #0]
 8000a84:	689b      	ldr	r3, [r3, #8]
 8000a86:	f003 0308 	and.w	r3, r3, #8
 8000a8a:	2b00      	cmp	r3, #0
 8000a8c:	d1e3      	bne.n	8000a56 <HAL_ADCEx_Calibration_Start+0x8a>
 8000a8e:	687b      	ldr	r3, [r7, #4]
 8000a90:	681b      	ldr	r3, [r3, #0]
 8000a92:	689a      	ldr	r2, [r3, #8]
 8000a94:	687b      	ldr	r3, [r7, #4]
 8000a96:	681b      	ldr	r3, [r3, #0]
 8000a98:	f042 0204 	orr.w	r2, r2, #4
 8000a9c:	609a      	str	r2, [r3, #8]
 8000a9e:	f7ff fbad 	bl	80001fc <HAL_GetTick>
 8000aa2:	6138      	str	r0, [r7, #16]
 8000aa4:	e014      	b.n	8000ad0 <HAL_ADCEx_Calibration_Start+0x104>
 8000aa6:	f7ff fba9 	bl	80001fc <HAL_GetTick>
 8000aaa:	4602      	mov	r2, r0
 8000aac:	693b      	ldr	r3, [r7, #16]
 8000aae:	1ad3      	subs	r3, r2, r3
 8000ab0:	2b0a      	cmp	r3, #10
 8000ab2:	d90d      	bls.n	8000ad0 <HAL_ADCEx_Calibration_Start+0x104>
 8000ab4:	687b      	ldr	r3, [r7, #4]
 8000ab6:	6a9b      	ldr	r3, [r3, #40]	; 0x28
 8000ab8:	f023 0312 	bic.w	r3, r3, #18
 8000abc:	f043 0210 	orr.w	r2, r3, #16
 8000ac0:	687b      	ldr	r3, [r7, #4]
 8000ac2:	629a      	str	r2, [r3, #40]	; 0x28
 8000ac4:	687b      	ldr	r3, [r7, #4]
 8000ac6:	2200      	movs	r2, #0
 8000ac8:	f883 2024 	strb.w	r2, [r3, #36]	; 0x24
 8000acc:	2301      	movs	r3, #1
 8000ace:	e013      	b.n	8000af8 <HAL_ADCEx_Calibration_Start+0x12c>
 8000ad0:	687b      	ldr	r3, [r7, #4]
 8000ad2:	681b      	ldr	r3, [r3, #0]
 8000ad4:	689b      	ldr	r3, [r3, #8]
 8000ad6:	f003 0304 	and.w	r3, r3, #4
 8000ada:	2b00      	cmp	r3, #0
 8000adc:	d1e3      	bne.n	8000aa6 <HAL_ADCEx_Calibration_Start+0xda>
 8000ade:	687b      	ldr	r3, [r7, #4]
 8000ae0:	6a9b      	ldr	r3, [r3, #40]	; 0x28
 8000ae2:	f023 0303 	bic.w	r3, r3, #3
 8000ae6:	f043 0201 	orr.w	r2, r3, #1
 8000aea:	687b      	ldr	r3, [r7, #4]
 8000aec:	629a      	str	r2, [r3, #40]	; 0x28
 8000aee:	687b      	ldr	r3, [r7, #4]
 8000af0:	2200      	movs	r2, #0
 8000af2:	f883 2024 	strb.w	r2, [r3, #36]	; 0x24
 8000af6:	7dfb      	ldrb	r3, [r7, #23]
 8000af8:	4618      	mov	r0, r3
 8000afa:	371c      	adds	r7, #28
 8000afc:	46bd      	mov	sp, r7
 8000afe:	bd90      	pop	{r4, r7, pc}
 8000b00:	2000000c 	.word	0x2000000c

08000b04 <__NVIC_SetPriorityGrouping>:
 8000b04:	b480      	push	{r7}
 8000b06:	b085      	sub	sp, #20
 8000b08:	af00      	add	r7, sp, #0
 8000b0a:	6078      	str	r0, [r7, #4]
 8000b0c:	687b      	ldr	r3, [r7, #4]
 8000b0e:	f003 0307 	and.w	r3, r3, #7
 8000b12:	60fb      	str	r3, [r7, #12]
 8000b14:	4b0c      	ldr	r3, [pc, #48]	; (8000b48 <__NVIC_SetPriorityGrouping+0x44>)
 8000b16:	68db      	ldr	r3, [r3, #12]
 8000b18:	60bb      	str	r3, [r7, #8]
 8000b1a:	68ba      	ldr	r2, [r7, #8]
 8000b1c:	f64f 03ff 	movw	r3, #63743	; 0xf8ff
 8000b20:	4013      	ands	r3, r2
 8000b22:	60bb      	str	r3, [r7, #8]
 8000b24:	68fb      	ldr	r3, [r7, #12]
 8000b26:	021a      	lsls	r2, r3, #8
 8000b28:	68bb      	ldr	r3, [r7, #8]
 8000b2a:	4313      	orrs	r3, r2
 8000b2c:	f043 63bf 	orr.w	r3, r3, #100139008	; 0x5f80000
 8000b30:	f443 3300 	orr.w	r3, r3, #131072	; 0x20000
 8000b34:	60bb      	str	r3, [r7, #8]
 8000b36:	4a04      	ldr	r2, [pc, #16]	; (8000b48 <__NVIC_SetPriorityGrouping+0x44>)
 8000b38:	68bb      	ldr	r3, [r7, #8]
 8000b3a:	60d3      	str	r3, [r2, #12]
 8000b3c:	bf00      	nop
 8000b3e:	3714      	adds	r7, #20
 8000b40:	46bd      	mov	sp, r7
 8000b42:	bc80      	pop	{r7}
 8000b44:	4770      	bx	lr
 8000b46:	bf00      	nop
 8000b48:	e000ed00 	.word	0xe000ed00

08000b4c <__NVIC_GetPriorityGrouping>:
 8000b4c:	b480      	push	{r7}
 8000b4e:	af00      	add	r7, sp, #0
 8000b50:	4b04      	ldr	r3, [pc, #16]	; (8000b64 <__NVIC_GetPriorityGrouping+0x18>)
 8000b52:	68db      	ldr	r3, [r3, #12]
 8000b54:	0a1b      	lsrs	r3, r3, #8
 8000b56:	f003 0307 	and.w	r3, r3, #7
 8000b5a:	4618      	mov	r0, r3
 8000b5c:	46bd      	mov	sp, r7
 8000b5e:	bc80      	pop	{r7}
 8000b60:	4770      	bx	lr
 8000b62:	bf00      	nop
 8000b64:	e000ed00 	.word	0xe000ed00

08000b68 <__NVIC_EnableIRQ>:
 8000b68:	b480      	push	{r7}
 8000b6a:	b083      	sub	sp, #12
 8000b6c:	af00      	add	r7, sp, #0
 8000b6e:	4603      	mov	r3, r0
 8000b70:	71fb      	strb	r3, [r7, #7]
 8000b72:	f997 3007 	ldrsb.w	r3, [r7, #7]
 8000b76:	2b00      	cmp	r3, #0
 8000b78:	db0b      	blt.n	8000b92 <__NVIC_EnableIRQ+0x2a>
 8000b7a:	79fb      	ldrb	r3, [r7, #7]
 8000b7c:	f003 021f 	and.w	r2, r3, #31
 8000b80:	4906      	ldr	r1, [pc, #24]	; (8000b9c <__NVIC_EnableIRQ+0x34>)
 8000b82:	f997 3007 	ldrsb.w	r3, [r7, #7]
 8000b86:	095b      	lsrs	r3, r3, #5
 8000b88:	2001      	movs	r0, #1
 8000b8a:	fa00 f202 	lsl.w	r2, r0, r2
 8000b8e:	f841 2023 	str.w	r2, [r1, r3, lsl #2]
 8000b92:	bf00      	nop
 8000b94:	370c      	adds	r7, #12
 8000b96:	46bd      	mov	sp, r7
 8000b98:	bc80      	pop	{r7}
 8000b9a:	4770      	bx	lr
 8000b9c:	e000e100 	.word	0xe000e100

08000ba0 <__NVIC_SetPriority>:
 8000ba0:	b480      	push	{r7}
 8000ba2:	b083      	sub	sp, #12
 8000ba4:	af00      	add	r7, sp, #0
 8000ba6:	4603      	mov	r3, r0
 8000ba8:	6039      	str	r1, [r7, #0]
 8000baa:	71fb      	strb	r3, [r7, #7]
 8000bac:	f997 3007 	ldrsb.w	r3, [r7, #7]
 8000bb0:	2b00      	cmp	r3, #0
 8000bb2:	db0a      	blt.n	8000bca <__NVIC_SetPriority+0x2a>
 8000bb4:	683b      	ldr	r3, [r7, #0]
 8000bb6:	b2da      	uxtb	r2, r3
 8000bb8:	490c      	ldr	r1, [pc, #48]	; (8000bec <__NVIC_SetPriority+0x4c>)
 8000bba:	f997 3007 	ldrsb.w	r3, [r7, #7]
 8000bbe:	0112      	lsls	r2, r2, #4
 8000bc0:	b2d2      	uxtb	r2, r2
 8000bc2:	440b      	add	r3, r1
 8000bc4:	f883 2300 	strb.w	r2, [r3, #768]	; 0x300
 8000bc8:	e00a      	b.n	8000be0 <__NVIC_SetPriority+0x40>
 8000bca:	683b      	ldr	r3, [r7, #0]
 8000bcc:	b2da      	uxtb	r2, r3
 8000bce:	4908      	ldr	r1, [pc, #32]	; (8000bf0 <__NVIC_SetPriority+0x50>)
 8000bd0:	79fb      	ldrb	r3, [r7, #7]
 8000bd2:	f003 030f 	and.w	r3, r3, #15
 8000bd6:	3b04      	subs	r3, #4
 8000bd8:	0112      	lsls	r2, r2, #4
 8000bda:	b2d2      	uxtb	r2, r2
 8000bdc:	440b      	add	r3, r1
 8000bde:	761a      	strb	r2, [r3, #24]
 8000be0:	bf00      	nop
 8000be2:	370c      	adds	r7, #12
 8000be4:	46bd      	mov	sp, r7
 8000be6:	bc80      	pop	{r7}
 8000be8:	4770      	bx	lr
 8000bea:	bf00      	nop
 8000bec:	e000e100 	.word	0xe000e100
 8000bf0:	e000ed00 	.word	0xe000ed00

08000bf4 <NVIC_EncodePriority>:
 8000bf4:	b480      	push	{r7}
 8000bf6:	b089      	sub	sp, #36	; 0x24
 8000bf8:	af00      	add	r7, sp, #0
 8000bfa:	60f8      	str	r0, [r7, #12]
 8000bfc:	60b9      	str	r1, [r7, #8]
 8000bfe:	607a      	str	r2, [r7, #4]
 8000c00:	68fb      	ldr	r3, [r7, #12]
 8000c02:	f003 0307 	and.w	r3, r3, #7
 8000c06:	61fb      	str	r3, [r7, #28]
 8000c08:	69fb      	ldr	r3, [r7, #28]
 8000c0a:	f1c3 0307 	rsb	r3, r3, #7
 8000c0e:	2b04      	cmp	r3, #4
 8000c10:	bf28      	it	cs
 8000c12:	2304      	movcs	r3, #4
 8000c14:	61bb      	str	r3, [r7, #24]
 8000c16:	69fb      	ldr	r3, [r7, #28]
 8000c18:	3304      	adds	r3, #4
 8000c1a:	2b06      	cmp	r3, #6
 8000c1c:	d902      	bls.n	8000c24 <NVIC_EncodePriority+0x30>
 8000c1e:	69fb      	ldr	r3, [r7, #28]
 8000c20:	3b03      	subs	r3, #3
 8000c22:	e000      	b.n	8000c26 <NVIC_EncodePriority+0x32>
 8000c24:	2300      	movs	r3, #0
 8000c26:	617b      	str	r3, [r7, #20]
 8000c28:	f04f 32ff 	mov.w	r2, #4294967295
 8000c2c:	69bb      	ldr	r3, [r7, #24]
 8000c2e:	fa02 f303 	lsl.w	r3, r2, r3
 8000c32:	43da      	mvns	r2, r3
 8000c34:	68bb      	ldr	r3, [r7, #8]
 8000c36:	401a      	ands	r2, r3
 8000c38:	697b      	ldr	r3, [r7, #20]
 8000c3a:	409a      	lsls	r2, r3
 8000c3c:	f04f 31ff 	mov.w	r1, #4294967295
 8000c40:	697b      	ldr	r3, [r7, #20]
 8000c42:	fa01 f303 	lsl.w	r3, r1, r3
 8000c46:	43d9      	mvns	r1, r3
 8000c48:	687b      	ldr	r3, [r7, #4]
 8000c4a:	400b      	ands	r3, r1
 8000c4c:	4313      	orrs	r3, r2
 8000c4e:	4618      	mov	r0, r3
 8000c50:	3724      	adds	r7, #36	; 0x24
 8000c52:	46bd      	mov	sp, r7
 8000c54:	bc80      	pop	{r7}
 8000c56:	4770      	bx	lr

08000c58 <SysTick_Config>:
 8000c58:	b580      	push	{r7, lr}
 8000c5a:	b082      	sub	sp, #8
 8000c5c:	af00      	add	r7, sp, #0
 8000c5e:	6078      	str	r0, [r7, #4]
 8000c60:	687b      	ldr	r3, [r7, #4]
 8000c62:	3b01      	subs	r3, #1
 8000c64:	f1b3 7f80 	cmp.w	r3, #16777216	; 0x1000000
 8000c68:	d301      	bcc.n	8000c6e <SysTick_Config+0x16>
 8000c6a:	2301      	movs	r3, #1
 8000c6c:	e00f      	b.n	8000c8e <SysTick_Config+0x36>
 8000c6e:	4a0a      	ldr	r2, [pc, #40]	; (8000c98 <SysTick_Config+0x40>)
 8000c70:	687b      	ldr	r3, [r7, #4]
 8000c72:	3b01      	subs	r3, #1
 8000c74:	6053      	str	r3, [r2, #4]
 8000c76:	210f      	movs	r1, #15
 8000c78:	f04f 30ff 	mov.w	r0, #4294967295
 8000c7c:	f7ff ff90 	bl	8000ba0 <__NVIC_SetPriority>
 8000c80:	4b05      	ldr	r3, [pc, #20]	; (8000c98 <SysTick_Config+0x40>)
 8000c82:	2200      	movs	r2, #0
 8000c84:	609a      	str	r2, [r3, #8]
 8000c86:	4b04      	ldr	r3, [pc, #16]	; (8000c98 <SysTick_Config+0x40>)
 8000c88:	2207      	movs	r2, #7
 8000c8a:	601a      	str	r2, [r3, #0]
 8000c8c:	2300      	movs	r3, #0
 8000c8e:	4618      	mov	r0, r3
 8000c90:	3708      	adds	r7, #8
 8000c92:	46bd      	mov	sp, r7
 8000c94:	bd80      	pop	{r7, pc}
 8000c96:	bf00      	nop
 8000c98:	e000e010 	.word	0xe000e010

08000c9c <HAL_NVIC_SetPriorityGrouping>:
 8000c9c:	b580      	push	{r7, lr}
 8000c9e:	b082      	sub	sp, #8
 8000ca0:	af00      	add	r7, sp, #0
 8000ca2:	6078      	str	r0, [r7, #4]
 8000ca4:	6878      	ldr	r0, [r7, #4]
 8000ca6:	f7ff ff2d 	bl	8000b04 <__NVIC_SetPriorityGrouping>
 8000caa:	bf00      	nop
 8000cac:	3708      	adds	r7, #8
 8000cae:	46bd      	mov	sp, r7
 8000cb0:	bd80      	pop	{r7, pc}

08000cb2 <HAL_NVIC_SetPriority>:
 8000cb2:	b580      	push	{r7, lr}
 8000cb4:	b086      	sub	sp, #24
 8000cb6:	af00      	add	r7, sp, #0
 8000cb8:	4603      	mov	r3, r0
 8000cba:	60b9      	str	r1, [r7, #8]
 8000cbc:	607a      	str	r2, [r7, #4]
 8000cbe:	73fb      	strb	r3, [r7, #15]
 8000cc0:	2300      	movs	r3, #0
 8000cc2:	617b      	str	r3, [r7, #20]
 8000cc4:	f7ff ff42 	bl	8000b4c <__NVIC_GetPriorityGrouping>
 8000cc8:	6178      	str	r0, [r7, #20]
 8000cca:	687a      	ldr	r2, [r7, #4]
 8000ccc:	68b9      	ldr	r1, [r7, #8]
 8000cce:	6978      	ldr	r0, [r7, #20]
 8000cd0:	f7ff ff90 	bl	8000bf4 <NVIC_EncodePriority>
 8000cd4:	4602      	mov	r2, r0
 8000cd6:	f997 300f 	ldrsb.w	r3, [r7, #15]
 8000cda:	4611      	mov	r1, r2
 8000cdc:	4618      	mov	r0, r3
 8000cde:	f7ff ff5f 	bl	8000ba0 <__NVIC_SetPriority>
 8000ce2:	bf00      	nop
 8000ce4:	3718      	adds	r7, #24
 8000ce6:	46bd      	mov	sp, r7
 8000ce8:	bd80      	pop	{r7, pc}

08000cea <HAL_NVIC_EnableIRQ>:
 8000cea:	b580      	push	{r7, lr}
 8000cec:	b082      	sub	sp, #8
 8000cee:	af00      	add	r7, sp, #0
 8000cf0:	4603      	mov	r3, r0
 8000cf2:	71fb      	strb	r3, [r7, #7]
 8000cf4:	f997 3007 	ldrsb.w	r3, [r7, #7]
 8000cf8:	4618      	mov	r0, r3
 8000cfa:	f7ff ff35 	bl	8000b68 <__NVIC_EnableIRQ>
 8000cfe:	bf00      	nop
 8000d00:	3708      	adds	r7, #8
 8000d02:	46bd      	mov	sp, r7
 8000d04:	bd80      	pop	{r7, pc}

08000d06 <HAL_SYSTICK_Config>:
 8000d06:	b580      	push	{r7, lr}
 8000d08:	b082      	sub	sp, #8
 8000d0a:	af00      	add	r7, sp, #0
 8000d0c:	6078      	str	r0, [r7, #4]
 8000d0e:	6878      	ldr	r0, [r7, #4]
 8000d10:	f7ff ffa2 	bl	8000c58 <SysTick_Config>
 8000d14:	4603      	mov	r3, r0
 8000d16:	4618      	mov	r0, r3
 8000d18:	3708      	adds	r7, #8
 8000d1a:	46bd      	mov	sp, r7
 8000d1c:	bd80      	pop	{r7, pc}
	...

08000d20 <HAL_DMA_Init>:
 8000d20:	b480      	push	{r7}
 8000d22:	b085      	sub	sp, #20
 8000d24:	af00      	add	r7, sp, #0
 8000d26:	6078      	str	r0, [r7, #4]
 8000d28:	2300      	movs	r3, #0
 8000d2a:	60fb      	str	r3, [r7, #12]
 8000d2c:	687b      	ldr	r3, [r7, #4]
 8000d2e:	2b00      	cmp	r3, #0
 8000d30:	d101      	bne.n	8000d36 <HAL_DMA_Init+0x16>
 8000d32:	2301      	movs	r3, #1
 8000d34:	e043      	b.n	8000dbe <HAL_DMA_Init+0x9e>
 8000d36:	687b      	ldr	r3, [r7, #4]
 8000d38:	681b      	ldr	r3, [r3, #0]
 8000d3a:	461a      	mov	r2, r3
 8000d3c:	4b22      	ldr	r3, [pc, #136]	; (8000dc8 <HAL_DMA_Init+0xa8>)
 8000d3e:	4413      	add	r3, r2
 8000d40:	4a22      	ldr	r2, [pc, #136]	; (8000dcc <HAL_DMA_Init+0xac>)
 8000d42:	fba2 2303 	umull	r2, r3, r2, r3
 8000d46:	091b      	lsrs	r3, r3, #4
 8000d48:	009a      	lsls	r2, r3, #2
 8000d4a:	687b      	ldr	r3, [r7, #4]
 8000d4c:	641a      	str	r2, [r3, #64]	; 0x40
 8000d4e:	687b      	ldr	r3, [r7, #4]
 8000d50:	4a1f      	ldr	r2, [pc, #124]	; (8000dd0 <HAL_DMA_Init+0xb0>)
 8000d52:	63da      	str	r2, [r3, #60]	; 0x3c
 8000d54:	687b      	ldr	r3, [r7, #4]
 8000d56:	2202      	movs	r2, #2
 8000d58:	f883 2021 	strb.w	r2, [r3, #33]	; 0x21
 8000d5c:	687b      	ldr	r3, [r7, #4]
 8000d5e:	681b      	ldr	r3, [r3, #0]
 8000d60:	681b      	ldr	r3, [r3, #0]
 8000d62:	60fb      	str	r3, [r7, #12]
 8000d64:	68fb      	ldr	r3, [r7, #12]
 8000d66:	f423 537f 	bic.w	r3, r3, #16320	; 0x3fc0
 8000d6a:	f023 0330 	bic.w	r3, r3, #48	; 0x30
 8000d6e:	60fb      	str	r3, [r7, #12]
 8000d70:	687b      	ldr	r3, [r7, #4]
 8000d72:	685a      	ldr	r2, [r3, #4]
 8000d74:	687b      	ldr	r3, [r7, #4]
 8000d76:	689b      	ldr	r3, [r3, #8]
 8000d78:	431a      	orrs	r2, r3
 8000d7a:	687b      	ldr	r3, [r7, #4]
 8000d7c:	68db      	ldr	r3, [r3, #12]
 8000d7e:	431a      	orrs	r2, r3
 8000d80:	687b      	ldr	r3, [r7, #4]
 8000d82:	691b      	ldr	r3, [r3, #16]
 8000d84:	431a      	orrs	r2, r3
 8000d86:	687b      	ldr	r3, [r7, #4]
 8000d88:	695b      	ldr	r3, [r3, #20]
 8000d8a:	431a      	orrs	r2, r3
 8000d8c:	687b      	ldr	r3, [r7, #4]
 8000d8e:	699b      	ldr	r3, [r3, #24]
 8000d90:	431a      	orrs	r2, r3
 8000d92:	687b      	ldr	r3, [r7, #4]
 8000d94:	69db      	ldr	r3, [r3, #28]
 8000d96:	4313      	orrs	r3, r2
 8000d98:	68fa      	ldr	r2, [r7, #12]
 8000d9a:	4313      	orrs	r3, r2
 8000d9c:	60fb      	str	r3, [r7, #12]
 8000d9e:	687b      	ldr	r3, [r7, #4]
 8000da0:	681b      	ldr	r3, [r3, #0]
 8000da2:	68fa      	ldr	r2, [r7, #12]
 8000da4:	601a      	str	r2, [r3, #0]
 8000da6:	687b      	ldr	r3, [r7, #4]
 8000da8:	2200      	movs	r2, #0
 8000daa:	639a      	str	r2, [r3, #56]	; 0x38
 8000dac:	687b      	ldr	r3, [r7, #4]
 8000dae:	2201      	movs	r2, #1
 8000db0:	f883 2021 	strb.w	r2, [r3, #33]	; 0x21
 8000db4:	687b      	ldr	r3, [r7, #4]
 8000db6:	2200      	movs	r2, #0
 8000db8:	f883 2020 	strb.w	r2, [r3, #32]
 8000dbc:	2300      	movs	r3, #0
 8000dbe:	4618      	mov	r0, r3
 8000dc0:	3714      	adds	r7, #20
 8000dc2:	46bd      	mov	sp, r7
 8000dc4:	bc80      	pop	{r7}
 8000dc6:	4770      	bx	lr
 8000dc8:	bffdfff8 	.word	0xbffdfff8
 8000dcc:	cccccccd 	.word	0xcccccccd
 8000dd0:	40020000 	.word	0x40020000

08000dd4 <HAL_DMA_Start_IT>:
 8000dd4:	b580      	push	{r7, lr}
 8000dd6:	b086      	sub	sp, #24
 8000dd8:	af00      	add	r7, sp, #0
 8000dda:	60f8      	str	r0, [r7, #12]
 8000ddc:	60b9      	str	r1, [r7, #8]
 8000dde:	607a      	str	r2, [r7, #4]
 8000de0:	603b      	str	r3, [r7, #0]
 8000de2:	2300      	movs	r3, #0
 8000de4:	75fb      	strb	r3, [r7, #23]
 8000de6:	68fb      	ldr	r3, [r7, #12]
 8000de8:	f893 3020 	ldrb.w	r3, [r3, #32]
 8000dec:	2b01      	cmp	r3, #1
 8000dee:	d101      	bne.n	8000df4 <HAL_DMA_Start_IT+0x20>
 8000df0:	2302      	movs	r3, #2
 8000df2:	e04a      	b.n	8000e8a <HAL_DMA_Start_IT+0xb6>
 8000df4:	68fb      	ldr	r3, [r7, #12]
 8000df6:	2201      	movs	r2, #1
 8000df8:	f883 2020 	strb.w	r2, [r3, #32]
 8000dfc:	68fb      	ldr	r3, [r7, #12]
 8000dfe:	f893 3021 	ldrb.w	r3, [r3, #33]	; 0x21
 8000e02:	2b01      	cmp	r3, #1
 8000e04:	d13a      	bne.n	8000e7c <HAL_DMA_Start_IT+0xa8>
 8000e06:	68fb      	ldr	r3, [r7, #12]
 8000e08:	2202      	movs	r2, #2
 8000e0a:	f883 2021 	strb.w	r2, [r3, #33]	; 0x21
 8000e0e:	68fb      	ldr	r3, [r7, #12]
 8000e10:	2200      	movs	r2, #0
 8000e12:	639a      	str	r2, [r3, #56]	; 0x38
 8000e14:	68fb      	ldr	r3, [r7, #12]
 8000e16:	681b      	ldr	r3, [r3, #0]
 8000e18:	681a      	ldr	r2, [r3, #0]
 8000e1a:	68fb      	ldr	r3, [r7, #12]
 8000e1c:	681b      	ldr	r3, [r3, #0]
 8000e1e:	f022 0201 	bic.w	r2, r2, #1
 8000e22:	601a      	str	r2, [r3, #0]
 8000e24:	683b      	ldr	r3, [r7, #0]
 8000e26:	687a      	ldr	r2, [r7, #4]
 8000e28:	68b9      	ldr	r1, [r7, #8]
 8000e2a:	68f8      	ldr	r0, [r7, #12]
 8000e2c:	f000 f938 	bl	80010a0 <DMA_SetConfig>
 8000e30:	68fb      	ldr	r3, [r7, #12]
 8000e32:	6adb      	ldr	r3, [r3, #44]	; 0x2c
 8000e34:	2b00      	cmp	r3, #0
 8000e36:	d008      	beq.n	8000e4a <HAL_DMA_Start_IT+0x76>
 8000e38:	68fb      	ldr	r3, [r7, #12]
 8000e3a:	681b      	ldr	r3, [r3, #0]
 8000e3c:	681a      	ldr	r2, [r3, #0]
 8000e3e:	68fb      	ldr	r3, [r7, #12]
 8000e40:	681b      	ldr	r3, [r3, #0]
 8000e42:	f042 020e 	orr.w	r2, r2, #14
 8000e46:	601a      	str	r2, [r3, #0]
 8000e48:	e00f      	b.n	8000e6a <HAL_DMA_Start_IT+0x96>
 8000e4a:	68fb      	ldr	r3, [r7, #12]
 8000e4c:	681b      	ldr	r3, [r3, #0]
 8000e4e:	681a      	ldr	r2, [r3, #0]
 8000e50:	68fb      	ldr	r3, [r7, #12]
 8000e52:	681b      	ldr	r3, [r3, #0]
 8000e54:	f022 0204 	bic.w	r2, r2, #4
 8000e58:	601a      	str	r2, [r3, #0]
 8000e5a:	68fb      	ldr	r3, [r7, #12]
 8000e5c:	681b      	ldr	r3, [r3, #0]
 8000e5e:	681a      	ldr	r2, [r3, #0]
 8000e60:	68fb      	ldr	r3, [r7, #12]
 8000e62:	681b      	ldr	r3, [r3, #0]
 8000e64:	f042 020a 	orr.w	r2, r2, #10
 8000e68:	601a      	str	r2, [r3, #0]
 8000e6a:	68fb      	ldr	r3, [r7, #12]
 8000e6c:	681b      	ldr	r3, [r3, #0]
 8000e6e:	681a      	ldr	r2, [r3, #0]
 8000e70:	68fb      	ldr	r3, [r7, #12]
 8000e72:	681b      	ldr	r3, [r3, #0]
 8000e74:	f042 0201 	orr.w	r2, r2, #1
 8000e78:	601a      	str	r2, [r3, #0]
 8000e7a:	e005      	b.n	8000e88 <HAL_DMA_Start_IT+0xb4>
 8000e7c:	68fb      	ldr	r3, [r7, #12]
 8000e7e:	2200      	movs	r2, #0
 8000e80:	f883 2020 	strb.w	r2, [r3, #32]
 8000e84:	2302      	movs	r3, #2
 8000e86:	75fb      	strb	r3, [r7, #23]
 8000e88:	7dfb      	ldrb	r3, [r7, #23]
 8000e8a:	4618      	mov	r0, r3
 8000e8c:	3718      	adds	r7, #24
 8000e8e:	46bd      	mov	sp, r7
 8000e90:	bd80      	pop	{r7, pc}
	...

08000e94 <HAL_DMA_IRQHandler>:
 8000e94:	b580      	push	{r7, lr}
 8000e96:	b084      	sub	sp, #16
 8000e98:	af00      	add	r7, sp, #0
 8000e9a:	6078      	str	r0, [r7, #4]
 8000e9c:	687b      	ldr	r3, [r7, #4]
 8000e9e:	6bdb      	ldr	r3, [r3, #60]	; 0x3c
 8000ea0:	681b      	ldr	r3, [r3, #0]
 8000ea2:	60fb      	str	r3, [r7, #12]
 8000ea4:	687b      	ldr	r3, [r7, #4]
 8000ea6:	681b      	ldr	r3, [r3, #0]
 8000ea8:	681b      	ldr	r3, [r3, #0]
 8000eaa:	60bb      	str	r3, [r7, #8]
 8000eac:	687b      	ldr	r3, [r7, #4]
 8000eae:	6c1b      	ldr	r3, [r3, #64]	; 0x40
 8000eb0:	2204      	movs	r2, #4
 8000eb2:	409a      	lsls	r2, r3
 8000eb4:	68fb      	ldr	r3, [r7, #12]
 8000eb6:	4013      	ands	r3, r2
 8000eb8:	2b00      	cmp	r3, #0
 8000eba:	d04f      	beq.n	8000f5c <HAL_DMA_IRQHandler+0xc8>
 8000ebc:	68bb      	ldr	r3, [r7, #8]
 8000ebe:	f003 0304 	and.w	r3, r3, #4
 8000ec2:	2b00      	cmp	r3, #0
 8000ec4:	d04a      	beq.n	8000f5c <HAL_DMA_IRQHandler+0xc8>
 8000ec6:	687b      	ldr	r3, [r7, #4]
 8000ec8:	681b      	ldr	r3, [r3, #0]
 8000eca:	681b      	ldr	r3, [r3, #0]
 8000ecc:	f003 0320 	and.w	r3, r3, #32
 8000ed0:	2b00      	cmp	r3, #0
 8000ed2:	d107      	bne.n	8000ee4 <HAL_DMA_IRQHandler+0x50>
 8000ed4:	687b      	ldr	r3, [r7, #4]
 8000ed6:	681b      	ldr	r3, [r3, #0]
 8000ed8:	681a      	ldr	r2, [r3, #0]
 8000eda:	687b      	ldr	r3, [r7, #4]
 8000edc:	681b      	ldr	r3, [r3, #0]
 8000ede:	f022 0204 	bic.w	r2, r2, #4
 8000ee2:	601a      	str	r2, [r3, #0]
 8000ee4:	687b      	ldr	r3, [r7, #4]
 8000ee6:	681b      	ldr	r3, [r3, #0]
 8000ee8:	4a66      	ldr	r2, [pc, #408]	; (8001084 <HAL_DMA_IRQHandler+0x1f0>)
 8000eea:	4293      	cmp	r3, r2
 8000eec:	d029      	beq.n	8000f42 <HAL_DMA_IRQHandler+0xae>
 8000eee:	687b      	ldr	r3, [r7, #4]
 8000ef0:	681b      	ldr	r3, [r3, #0]
 8000ef2:	4a65      	ldr	r2, [pc, #404]	; (8001088 <HAL_DMA_IRQHandler+0x1f4>)
 8000ef4:	4293      	cmp	r3, r2
 8000ef6:	d022      	beq.n	8000f3e <HAL_DMA_IRQHandler+0xaa>
 8000ef8:	687b      	ldr	r3, [r7, #4]
 8000efa:	681b      	ldr	r3, [r3, #0]
 8000efc:	4a63      	ldr	r2, [pc, #396]	; (800108c <HAL_DMA_IRQHandler+0x1f8>)
 8000efe:	4293      	cmp	r3, r2
 8000f00:	d01a      	beq.n	8000f38 <HAL_DMA_IRQHandler+0xa4>
 8000f02:	687b      	ldr	r3, [r7, #4]
 8000f04:	681b      	ldr	r3, [r3, #0]
 8000f06:	4a62      	ldr	r2, [pc, #392]	; (8001090 <HAL_DMA_IRQHandler+0x1fc>)
 8000f08:	4293      	cmp	r3, r2
 8000f0a:	d012      	beq.n	8000f32 <HAL_DMA_IRQHandler+0x9e>
 8000f0c:	687b      	ldr	r3, [r7, #4]
 8000f0e:	681b      	ldr	r3, [r3, #0]
 8000f10:	4a60      	ldr	r2, [pc, #384]	; (8001094 <HAL_DMA_IRQHandler+0x200>)
 8000f12:	4293      	cmp	r3, r2
 8000f14:	d00a      	beq.n	8000f2c <HAL_DMA_IRQHandler+0x98>
 8000f16:	687b      	ldr	r3, [r7, #4]
 8000f18:	681b      	ldr	r3, [r3, #0]
 8000f1a:	4a5f      	ldr	r2, [pc, #380]	; (8001098 <HAL_DMA_IRQHandler+0x204>)
 8000f1c:	4293      	cmp	r3, r2
 8000f1e:	d102      	bne.n	8000f26 <HAL_DMA_IRQHandler+0x92>
 8000f20:	f44f 0380 	mov.w	r3, #4194304	; 0x400000
 8000f24:	e00e      	b.n	8000f44 <HAL_DMA_IRQHandler+0xb0>
 8000f26:	f04f 6380 	mov.w	r3, #67108864	; 0x4000000
 8000f2a:	e00b      	b.n	8000f44 <HAL_DMA_IRQHandler+0xb0>
 8000f2c:	f44f 2380 	mov.w	r3, #262144	; 0x40000
 8000f30:	e008      	b.n	8000f44 <HAL_DMA_IRQHandler+0xb0>
 8000f32:	f44f 4380 	mov.w	r3, #16384	; 0x4000
 8000f36:	e005      	b.n	8000f44 <HAL_DMA_IRQHandler+0xb0>
 8000f38:	f44f 6380 	mov.w	r3, #1024	; 0x400
 8000f3c:	e002      	b.n	8000f44 <HAL_DMA_IRQHandler+0xb0>
 8000f3e:	2340      	movs	r3, #64	; 0x40
 8000f40:	e000      	b.n	8000f44 <HAL_DMA_IRQHandler+0xb0>
 8000f42:	2304      	movs	r3, #4
 8000f44:	4a55      	ldr	r2, [pc, #340]	; (800109c <HAL_DMA_IRQHandler+0x208>)
 8000f46:	6053      	str	r3, [r2, #4]
 8000f48:	687b      	ldr	r3, [r7, #4]
 8000f4a:	6adb      	ldr	r3, [r3, #44]	; 0x2c
 8000f4c:	2b00      	cmp	r3, #0
 8000f4e:	f000 8094 	beq.w	800107a <HAL_DMA_IRQHandler+0x1e6>
 8000f52:	687b      	ldr	r3, [r7, #4]
 8000f54:	6adb      	ldr	r3, [r3, #44]	; 0x2c
 8000f56:	6878      	ldr	r0, [r7, #4]
 8000f58:	4798      	blx	r3
 8000f5a:	e08e      	b.n	800107a <HAL_DMA_IRQHandler+0x1e6>
 8000f5c:	687b      	ldr	r3, [r7, #4]
 8000f5e:	6c1b      	ldr	r3, [r3, #64]	; 0x40
 8000f60:	2202      	movs	r2, #2
 8000f62:	409a      	lsls	r2, r3
 8000f64:	68fb      	ldr	r3, [r7, #12]
 8000f66:	4013      	ands	r3, r2
 8000f68:	2b00      	cmp	r3, #0
 8000f6a:	d056      	beq.n	800101a <HAL_DMA_IRQHandler+0x186>
 8000f6c:	68bb      	ldr	r3, [r7, #8]
 8000f6e:	f003 0302 	and.w	r3, r3, #2
 8000f72:	2b00      	cmp	r3, #0
 8000f74:	d051      	beq.n	800101a <HAL_DMA_IRQHandler+0x186>
 8000f76:	687b      	ldr	r3, [r7, #4]
 8000f78:	681b      	ldr	r3, [r3, #0]
 8000f7a:	681b      	ldr	r3, [r3, #0]
 8000f7c:	f003 0320 	and.w	r3, r3, #32
 8000f80:	2b00      	cmp	r3, #0
 8000f82:	d10b      	bne.n	8000f9c <HAL_DMA_IRQHandler+0x108>
 8000f84:	687b      	ldr	r3, [r7, #4]
 8000f86:	681b      	ldr	r3, [r3, #0]
 8000f88:	681a      	ldr	r2, [r3, #0]
 8000f8a:	687b      	ldr	r3, [r7, #4]
 8000f8c:	681b      	ldr	r3, [r3, #0]
 8000f8e:	f022 020a 	bic.w	r2, r2, #10
 8000f92:	601a      	str	r2, [r3, #0]
 8000f94:	687b      	ldr	r3, [r7, #4]
 8000f96:	2201      	movs	r2, #1
 8000f98:	f883 2021 	strb.w	r2, [r3, #33]	; 0x21
 8000f9c:	687b      	ldr	r3, [r7, #4]
 8000f9e:	681b      	ldr	r3, [r3, #0]
 8000fa0:	4a38      	ldr	r2, [pc, #224]	; (8001084 <HAL_DMA_IRQHandler+0x1f0>)
 8000fa2:	4293      	cmp	r3, r2
 8000fa4:	d029      	beq.n	8000ffa <HAL_DMA_IRQHandler+0x166>
 8000fa6:	687b      	ldr	r3, [r7, #4]
 8000fa8:	681b      	ldr	r3, [r3, #0]
 8000faa:	4a37      	ldr	r2, [pc, #220]	; (8001088 <HAL_DMA_IRQHandler+0x1f4>)
 8000fac:	4293      	cmp	r3, r2
 8000fae:	d022      	beq.n	8000ff6 <HAL_DMA_IRQHandler+0x162>
 8000fb0:	687b      	ldr	r3, [r7, #4]
 8000fb2:	681b      	ldr	r3, [r3, #0]
 8000fb4:	4a35      	ldr	r2, [pc, #212]	; (800108c <HAL_DMA_IRQHandler+0x1f8>)
 8000fb6:	4293      	cmp	r3, r2
 8000fb8:	d01a      	beq.n	8000ff0 <HAL_DMA_IRQHandler+0x15c>
 8000fba:	687b      	ldr	r3, [r7, #4]
 8000fbc:	681b      	ldr	r3, [r3, #0]
 8000fbe:	4a34      	ldr	r2, [pc, #208]	; (8001090 <HAL_DMA_IRQHandler+0x1fc>)
 8000fc0:	4293      	cmp	r3, r2
 8000fc2:	d012      	beq.n	8000fea <HAL_DMA_IRQHandler+0x156>
 8000fc4:	687b      	ldr	r3, [r7, #4]
 8000fc6:	681b      	ldr	r3, [r3, #0]
 8000fc8:	4a32      	ldr	r2, [pc, #200]	; (8001094 <HAL_DMA_IRQHandler+0x200>)
 8000fca:	4293      	cmp	r3, r2
 8000fcc:	d00a      	beq.n	8000fe4 <HAL_DMA_IRQHandler+0x150>
 8000fce:	687b      	ldr	r3, [r7, #4]
 8000fd0:	681b      	ldr	r3, [r3, #0]
 8000fd2:	4a31      	ldr	r2, [pc, #196]	; (8001098 <HAL_DMA_IRQHandler+0x204>)
 8000fd4:	4293      	cmp	r3, r2
 8000fd6:	d102      	bne.n	8000fde <HAL_DMA_IRQHandler+0x14a>
 8000fd8:	f44f 1300 	mov.w	r3, #2097152	; 0x200000
 8000fdc:	e00e      	b.n	8000ffc <HAL_DMA_IRQHandler+0x168>
 8000fde:	f04f 7300 	mov.w	r3, #33554432	; 0x2000000
 8000fe2:	e00b      	b.n	8000ffc <HAL_DMA_IRQHandler+0x168>
 8000fe4:	f44f 3300 	mov.w	r3, #131072	; 0x20000
 8000fe8:	e008      	b.n	8000ffc <HAL_DMA_IRQHandler+0x168>
 8000fea:	f44f 5300 	mov.w	r3, #8192	; 0x2000
 8000fee:	e005      	b.n	8000ffc <HAL_DMA_IRQHandler+0x168>
 8000ff0:	f44f 7300 	mov.w	r3, #512	; 0x200
 8000ff4:	e002      	b.n	8000ffc <HAL_DMA_IRQHandler+0x168>
 8000ff6:	2320      	movs	r3, #32
 8000ff8:	e000      	b.n	8000ffc <HAL_DMA_IRQHandler+0x168>
 8000ffa:	2302      	movs	r3, #2
 8000ffc:	4a27      	ldr	r2, [pc, #156]	; (800109c <HAL_DMA_IRQHandler+0x208>)
 8000ffe:	6053      	str	r3, [r2, #4]
 8001000:	687b      	ldr	r3, [r7, #4]
 8001002:	2200      	movs	r2, #0
 8001004:	f883 2020 	strb.w	r2, [r3, #32]
 8001008:	687b      	ldr	r3, [r7, #4]
 800100a:	6a9b      	ldr	r3, [r3, #40]	; 0x28
 800100c:	2b00      	cmp	r3, #0
 800100e:	d034      	beq.n	800107a <HAL_DMA_IRQHandler+0x1e6>
 8001010:	687b      	ldr	r3, [r7, #4]
 8001012:	6a9b      	ldr	r3, [r3, #40]	; 0x28
 8001014:	6878      	ldr	r0, [r7, #4]
 8001016:	4798      	blx	r3
 8001018:	e02f      	b.n	800107a <HAL_DMA_IRQHandler+0x1e6>
 800101a:	687b      	ldr	r3, [r7, #4]
 800101c:	6c1b      	ldr	r3, [r3, #64]	; 0x40
 800101e:	2208      	movs	r2, #8
 8001020:	409a      	lsls	r2, r3
 8001022:	68fb      	ldr	r3, [r7, #12]
 8001024:	4013      	ands	r3, r2
 8001026:	2b00      	cmp	r3, #0
 8001028:	d028      	beq.n	800107c <HAL_DMA_IRQHandler+0x1e8>
 800102a:	68bb      	ldr	r3, [r7, #8]
 800102c:	f003 0308 	and.w	r3, r3, #8
 8001030:	2b00      	cmp	r3, #0
 8001032:	d023      	beq.n	800107c <HAL_DMA_IRQHandler+0x1e8>
 8001034:	687b      	ldr	r3, [r7, #4]
 8001036:	681b      	ldr	r3, [r3, #0]
 8001038:	681a      	ldr	r2, [r3, #0]
 800103a:	687b      	ldr	r3, [r7, #4]
 800103c:	681b      	ldr	r3, [r3, #0]
 800103e:	f022 020e 	bic.w	r2, r2, #14
 8001042:	601a      	str	r2, [r3, #0]
 8001044:	687b      	ldr	r3, [r7, #4]
 8001046:	6c1a      	ldr	r2, [r3, #64]	; 0x40
 8001048:	687b      	ldr	r3, [r7, #4]
 800104a:	6bdb      	ldr	r3, [r3, #60]	; 0x3c
 800104c:	2101      	movs	r1, #1
 800104e:	fa01 f202 	lsl.w	r2, r1, r2
 8001052:	605a      	str	r2, [r3, #4]
 8001054:	687b      	ldr	r3, [r7, #4]
 8001056:	2201      	movs	r2, #1
 8001058:	639a      	str	r2, [r3, #56]	; 0x38
 800105a:	687b      	ldr	r3, [r7, #4]
 800105c:	2201      	movs	r2, #1
 800105e:	f883 2021 	strb.w	r2, [r3, #33]	; 0x21
 8001062:	687b      	ldr	r3, [r7, #4]
 8001064:	2200      	movs	r2, #0
 8001066:	f883 2020 	strb.w	r2, [r3, #32]
 800106a:	687b      	ldr	r3, [r7, #4]
 800106c:	6b1b      	ldr	r3, [r3, #48]	; 0x30
 800106e:	2b00      	cmp	r3, #0
 8001070:	d004      	beq.n	800107c <HAL_DMA_IRQHandler+0x1e8>
 8001072:	687b      	ldr	r3, [r7, #4]
 8001074:	6b1b      	ldr	r3, [r3, #48]	; 0x30
 8001076:	6878      	ldr	r0, [r7, #4]
 8001078:	4798      	blx	r3
 800107a:	bf00      	nop
 800107c:	bf00      	nop
 800107e:	3710      	adds	r7, #16
 8001080:	46bd      	mov	sp, r7
 8001082:	bd80      	pop	{r7, pc}
 8001084:	40020008 	.word	0x40020008
 8001088:	4002001c 	.word	0x4002001c
 800108c:	40020030 	.word	0x40020030
 8001090:	40020044 	.word	0x40020044
 8001094:	40020058 	.word	0x40020058
 8001098:	4002006c 	.word	0x4002006c
 800109c:	40020000 	.word	0x40020000

080010a0 <DMA_SetConfig>:
 80010a0:	b480      	push	{r7}
 80010a2:	b085      	sub	sp, #20
 80010a4:	af00      	add	r7, sp, #0
 80010a6:	60f8      	str	r0, [r7, #12]
 80010a8:	60b9      	str	r1, [r7, #8]
 80010aa:	607a      	str	r2, [r7, #4]
 80010ac:	603b      	str	r3, [r7, #0]
 80010ae:	68fb      	ldr	r3, [r7, #12]
 80010b0:	6c1a      	ldr	r2, [r3, #64]	; 0x40
 80010b2:	68fb      	ldr	r3, [r7, #12]
 80010b4:	6bdb      	ldr	r3, [r3, #60]	; 0x3c
 80010b6:	2101      	movs	r1, #1
 80010b8:	fa01 f202 	lsl.w	r2, r1, r2
 80010bc:	605a      	str	r2, [r3, #4]
 80010be:	68fb      	ldr	r3, [r7, #12]
 80010c0:	681b      	ldr	r3, [r3, #0]
 80010c2:	683a      	ldr	r2, [r7, #0]
 80010c4:	605a      	str	r2, [r3, #4]
 80010c6:	68fb      	ldr	r3, [r7, #12]
 80010c8:	685b      	ldr	r3, [r3, #4]
 80010ca:	2b10      	cmp	r3, #16
 80010cc:	d108      	bne.n	80010e0 <DMA_SetConfig+0x40>
 80010ce:	68fb      	ldr	r3, [r7, #12]
 80010d0:	681b      	ldr	r3, [r3, #0]
 80010d2:	687a      	ldr	r2, [r7, #4]
 80010d4:	609a      	str	r2, [r3, #8]
 80010d6:	68fb      	ldr	r3, [r7, #12]
 80010d8:	681b      	ldr	r3, [r3, #0]
 80010da:	68ba      	ldr	r2, [r7, #8]
 80010dc:	60da      	str	r2, [r3, #12]
 80010de:	e007      	b.n	80010f0 <DMA_SetConfig+0x50>
 80010e0:	68fb      	ldr	r3, [r7, #12]
 80010e2:	681b      	ldr	r3, [r3, #0]
 80010e4:	68ba      	ldr	r2, [r7, #8]
 80010e6:	609a      	str	r2, [r3, #8]
 80010e8:	68fb      	ldr	r3, [r7, #12]
 80010ea:	681b      	ldr	r3, [r3, #0]
 80010ec:	687a      	ldr	r2, [r7, #4]
 80010ee:	60da      	str	r2, [r3, #12]
 80010f0:	bf00      	nop
 80010f2:	3714      	adds	r7, #20
 80010f4:	46bd      	mov	sp, r7
 80010f6:	bc80      	pop	{r7}
 80010f8:	4770      	bx	lr
	...

080010fc <HAL_GPIO_Init>:
 80010fc:	b480      	push	{r7}
 80010fe:	b08b      	sub	sp, #44	; 0x2c
 8001100:	af00      	add	r7, sp, #0
 8001102:	6078      	str	r0, [r7, #4]
 8001104:	6039      	str	r1, [r7, #0]
 8001106:	2300      	movs	r3, #0
 8001108:	627b      	str	r3, [r7, #36]	; 0x24
 800110a:	2300      	movs	r3, #0
 800110c:	623b      	str	r3, [r7, #32]
 800110e:	e127      	b.n	8001360 <HAL_GPIO_Init+0x264>
 8001110:	2201      	movs	r2, #1
 8001112:	6a7b      	ldr	r3, [r7, #36]	; 0x24
 8001114:	fa02 f303 	lsl.w	r3, r2, r3
 8001118:	61fb      	str	r3, [r7, #28]
 800111a:	683b      	ldr	r3, [r7, #0]
 800111c:	681b      	ldr	r3, [r3, #0]
 800111e:	69fa      	ldr	r2, [r7, #28]
 8001120:	4013      	ands	r3, r2
 8001122:	61bb      	str	r3, [r7, #24]
 8001124:	69ba      	ldr	r2, [r7, #24]
 8001126:	69fb      	ldr	r3, [r7, #28]
 8001128:	429a      	cmp	r2, r3
 800112a:	f040 8116 	bne.w	800135a <HAL_GPIO_Init+0x25e>
 800112e:	683b      	ldr	r3, [r7, #0]
 8001130:	685b      	ldr	r3, [r3, #4]
 8001132:	2b12      	cmp	r3, #18
 8001134:	d034      	beq.n	80011a0 <HAL_GPIO_Init+0xa4>
 8001136:	2b12      	cmp	r3, #18
 8001138:	d80d      	bhi.n	8001156 <HAL_GPIO_Init+0x5a>
 800113a:	2b02      	cmp	r3, #2
 800113c:	d02b      	beq.n	8001196 <HAL_GPIO_Init+0x9a>
 800113e:	2b02      	cmp	r3, #2
 8001140:	d804      	bhi.n	800114c <HAL_GPIO_Init+0x50>
 8001142:	2b00      	cmp	r3, #0
 8001144:	d031      	beq.n	80011aa <HAL_GPIO_Init+0xae>
 8001146:	2b01      	cmp	r3, #1
 8001148:	d01c      	beq.n	8001184 <HAL_GPIO_Init+0x88>
 800114a:	e048      	b.n	80011de <HAL_GPIO_Init+0xe2>
 800114c:	2b03      	cmp	r3, #3
 800114e:	d043      	beq.n	80011d8 <HAL_GPIO_Init+0xdc>
 8001150:	2b11      	cmp	r3, #17
 8001152:	d01b      	beq.n	800118c <HAL_GPIO_Init+0x90>
 8001154:	e043      	b.n	80011de <HAL_GPIO_Init+0xe2>
 8001156:	4a89      	ldr	r2, [pc, #548]	; (800137c <HAL_GPIO_Init+0x280>)
 8001158:	4293      	cmp	r3, r2
 800115a:	d026      	beq.n	80011aa <HAL_GPIO_Init+0xae>
 800115c:	4a87      	ldr	r2, [pc, #540]	; (800137c <HAL_GPIO_Init+0x280>)
 800115e:	4293      	cmp	r3, r2
 8001160:	d806      	bhi.n	8001170 <HAL_GPIO_Init+0x74>
 8001162:	4a87      	ldr	r2, [pc, #540]	; (8001380 <HAL_GPIO_Init+0x284>)
 8001164:	4293      	cmp	r3, r2
 8001166:	d020      	beq.n	80011aa <HAL_GPIO_Init+0xae>
 8001168:	4a86      	ldr	r2, [pc, #536]	; (8001384 <HAL_GPIO_Init+0x288>)
 800116a:	4293      	cmp	r3, r2
 800116c:	d01d      	beq.n	80011aa <HAL_GPIO_Init+0xae>
 800116e:	e036      	b.n	80011de <HAL_GPIO_Init+0xe2>
 8001170:	4a85      	ldr	r2, [pc, #532]	; (8001388 <HAL_GPIO_Init+0x28c>)
 8001172:	4293      	cmp	r3, r2
 8001174:	d019      	beq.n	80011aa <HAL_GPIO_Init+0xae>
 8001176:	4a85      	ldr	r2, [pc, #532]	; (800138c <HAL_GPIO_Init+0x290>)
 8001178:	4293      	cmp	r3, r2
 800117a:	d016      	beq.n	80011aa <HAL_GPIO_Init+0xae>
 800117c:	4a84      	ldr	r2, [pc, #528]	; (8001390 <HAL_GPIO_Init+0x294>)
 800117e:	4293      	cmp	r3, r2
 8001180:	d013      	beq.n	80011aa <HAL_GPIO_Init+0xae>
 8001182:	e02c      	b.n	80011de <HAL_GPIO_Init+0xe2>
 8001184:	683b      	ldr	r3, [r7, #0]
 8001186:	68db      	ldr	r3, [r3, #12]
 8001188:	623b      	str	r3, [r7, #32]
 800118a:	e028      	b.n	80011de <HAL_GPIO_Init+0xe2>
 800118c:	683b      	ldr	r3, [r7, #0]
 800118e:	68db      	ldr	r3, [r3, #12]
 8001190:	3304      	adds	r3, #4
 8001192:	623b      	str	r3, [r7, #32]
 8001194:	e023      	b.n	80011de <HAL_GPIO_Init+0xe2>
 8001196:	683b      	ldr	r3, [r7, #0]
 8001198:	68db      	ldr	r3, [r3, #12]
 800119a:	3308      	adds	r3, #8
 800119c:	623b      	str	r3, [r7, #32]
 800119e:	e01e      	b.n	80011de <HAL_GPIO_Init+0xe2>
 80011a0:	683b      	ldr	r3, [r7, #0]
 80011a2:	68db      	ldr	r3, [r3, #12]
 80011a4:	330c      	adds	r3, #12
 80011a6:	623b      	str	r3, [r7, #32]
 80011a8:	e019      	b.n	80011de <HAL_GPIO_Init+0xe2>
 80011aa:	683b      	ldr	r3, [r7, #0]
 80011ac:	689b      	ldr	r3, [r3, #8]
 80011ae:	2b00      	cmp	r3, #0
 80011b0:	d102      	bne.n	80011b8 <HAL_GPIO_Init+0xbc>
 80011b2:	2304      	movs	r3, #4
 80011b4:	623b      	str	r3, [r7, #32]
 80011b6:	e012      	b.n	80011de <HAL_GPIO_Init+0xe2>
 80011b8:	683b      	ldr	r3, [r7, #0]
 80011ba:	689b      	ldr	r3, [r3, #8]
 80011bc:	2b01      	cmp	r3, #1
 80011be:	d105      	bne.n	80011cc <HAL_GPIO_Init+0xd0>
 80011c0:	2308      	movs	r3, #8
 80011c2:	623b      	str	r3, [r7, #32]
 80011c4:	687b      	ldr	r3, [r7, #4]
 80011c6:	69fa      	ldr	r2, [r7, #28]
 80011c8:	611a      	str	r2, [r3, #16]
 80011ca:	e008      	b.n	80011de <HAL_GPIO_Init+0xe2>
 80011cc:	2308      	movs	r3, #8
 80011ce:	623b      	str	r3, [r7, #32]
 80011d0:	687b      	ldr	r3, [r7, #4]
 80011d2:	69fa      	ldr	r2, [r7, #28]
 80011d4:	615a      	str	r2, [r3, #20]
 80011d6:	e002      	b.n	80011de <HAL_GPIO_Init+0xe2>
 80011d8:	2300      	movs	r3, #0
 80011da:	623b      	str	r3, [r7, #32]
 80011dc:	bf00      	nop
 80011de:	69bb      	ldr	r3, [r7, #24]
 80011e0:	2bff      	cmp	r3, #255	; 0xff
 80011e2:	d801      	bhi.n	80011e8 <HAL_GPIO_Init+0xec>
 80011e4:	687b      	ldr	r3, [r7, #4]
 80011e6:	e001      	b.n	80011ec <HAL_GPIO_Init+0xf0>
 80011e8:	687b      	ldr	r3, [r7, #4]
 80011ea:	3304      	adds	r3, #4
 80011ec:	617b      	str	r3, [r7, #20]
 80011ee:	69bb      	ldr	r3, [r7, #24]
 80011f0:	2bff      	cmp	r3, #255	; 0xff
 80011f2:	d802      	bhi.n	80011fa <HAL_GPIO_Init+0xfe>
 80011f4:	6a7b      	ldr	r3, [r7, #36]	; 0x24
 80011f6:	009b      	lsls	r3, r3, #2
 80011f8:	e002      	b.n	8001200 <HAL_GPIO_Init+0x104>
 80011fa:	6a7b      	ldr	r3, [r7, #36]	; 0x24
 80011fc:	3b08      	subs	r3, #8
 80011fe:	009b      	lsls	r3, r3, #2
 8001200:	613b      	str	r3, [r7, #16]
 8001202:	697b      	ldr	r3, [r7, #20]
 8001204:	681a      	ldr	r2, [r3, #0]
 8001206:	210f      	movs	r1, #15
 8001208:	693b      	ldr	r3, [r7, #16]
 800120a:	fa01 f303 	lsl.w	r3, r1, r3
 800120e:	43db      	mvns	r3, r3
 8001210:	401a      	ands	r2, r3
 8001212:	6a39      	ldr	r1, [r7, #32]
 8001214:	693b      	ldr	r3, [r7, #16]
 8001216:	fa01 f303 	lsl.w	r3, r1, r3
 800121a:	431a      	orrs	r2, r3
 800121c:	697b      	ldr	r3, [r7, #20]
 800121e:	601a      	str	r2, [r3, #0]
 8001220:	683b      	ldr	r3, [r7, #0]
 8001222:	685b      	ldr	r3, [r3, #4]
 8001224:	f003 5380 	and.w	r3, r3, #268435456	; 0x10000000
 8001228:	2b00      	cmp	r3, #0
 800122a:	f000 8096 	beq.w	800135a <HAL_GPIO_Init+0x25e>
 800122e:	4b59      	ldr	r3, [pc, #356]	; (8001394 <HAL_GPIO_Init+0x298>)
 8001230:	699b      	ldr	r3, [r3, #24]
 8001232:	4a58      	ldr	r2, [pc, #352]	; (8001394 <HAL_GPIO_Init+0x298>)
 8001234:	f043 0301 	orr.w	r3, r3, #1
 8001238:	6193      	str	r3, [r2, #24]
 800123a:	4b56      	ldr	r3, [pc, #344]	; (8001394 <HAL_GPIO_Init+0x298>)
 800123c:	699b      	ldr	r3, [r3, #24]
 800123e:	f003 0301 	and.w	r3, r3, #1
 8001242:	60bb      	str	r3, [r7, #8]
 8001244:	68bb      	ldr	r3, [r7, #8]
 8001246:	4a54      	ldr	r2, [pc, #336]	; (8001398 <HAL_GPIO_Init+0x29c>)
 8001248:	6a7b      	ldr	r3, [r7, #36]	; 0x24
 800124a:	089b      	lsrs	r3, r3, #2
 800124c:	3302      	adds	r3, #2
 800124e:	f852 3023 	ldr.w	r3, [r2, r3, lsl #2]
 8001252:	60fb      	str	r3, [r7, #12]
 8001254:	6a7b      	ldr	r3, [r7, #36]	; 0x24
 8001256:	f003 0303 	and.w	r3, r3, #3
 800125a:	009b      	lsls	r3, r3, #2
 800125c:	220f      	movs	r2, #15
 800125e:	fa02 f303 	lsl.w	r3, r2, r3
 8001262:	43db      	mvns	r3, r3
 8001264:	68fa      	ldr	r2, [r7, #12]
 8001266:	4013      	ands	r3, r2
 8001268:	60fb      	str	r3, [r7, #12]
 800126a:	687b      	ldr	r3, [r7, #4]
 800126c:	4a4b      	ldr	r2, [pc, #300]	; (800139c <HAL_GPIO_Init+0x2a0>)
 800126e:	4293      	cmp	r3, r2
 8001270:	d013      	beq.n	800129a <HAL_GPIO_Init+0x19e>
 8001272:	687b      	ldr	r3, [r7, #4]
 8001274:	4a4a      	ldr	r2, [pc, #296]	; (80013a0 <HAL_GPIO_Init+0x2a4>)
 8001276:	4293      	cmp	r3, r2
 8001278:	d00d      	beq.n	8001296 <HAL_GPIO_Init+0x19a>
 800127a:	687b      	ldr	r3, [r7, #4]
 800127c:	4a49      	ldr	r2, [pc, #292]	; (80013a4 <HAL_GPIO_Init+0x2a8>)
 800127e:	4293      	cmp	r3, r2
 8001280:	d007      	beq.n	8001292 <HAL_GPIO_Init+0x196>
 8001282:	687b      	ldr	r3, [r7, #4]
 8001284:	4a48      	ldr	r2, [pc, #288]	; (80013a8 <HAL_GPIO_Init+0x2ac>)
 8001286:	4293      	cmp	r3, r2
 8001288:	d101      	bne.n	800128e <HAL_GPIO_Init+0x192>
 800128a:	2303      	movs	r3, #3
 800128c:	e006      	b.n	800129c <HAL_GPIO_Init+0x1a0>
 800128e:	2304      	movs	r3, #4
 8001290:	e004      	b.n	800129c <HAL_GPIO_Init+0x1a0>
 8001292:	2302      	movs	r3, #2
 8001294:	e002      	b.n	800129c <HAL_GPIO_Init+0x1a0>
 8001296:	2301      	movs	r3, #1
 8001298:	e000      	b.n	800129c <HAL_GPIO_Init+0x1a0>
 800129a:	2300      	movs	r3, #0
 800129c:	6a7a      	ldr	r2, [r7, #36]	; 0x24
 800129e:	f002 0203 	and.w	r2, r2, #3
 80012a2:	0092      	lsls	r2, r2, #2
 80012a4:	4093      	lsls	r3, r2
 80012a6:	68fa      	ldr	r2, [r7, #12]
 80012a8:	4313      	orrs	r3, r2
 80012aa:	60fb      	str	r3, [r7, #12]
 80012ac:	493a      	ldr	r1, [pc, #232]	; (8001398 <HAL_GPIO_Init+0x29c>)
 80012ae:	6a7b      	ldr	r3, [r7, #36]	; 0x24
 80012b0:	089b      	lsrs	r3, r3, #2
 80012b2:	3302      	adds	r3, #2
 80012b4:	68fa      	ldr	r2, [r7, #12]
 80012b6:	f841 2023 	str.w	r2, [r1, r3, lsl #2]
 80012ba:	683b      	ldr	r3, [r7, #0]
 80012bc:	685b      	ldr	r3, [r3, #4]
 80012be:	f403 3380 	and.w	r3, r3, #65536	; 0x10000
 80012c2:	2b00      	cmp	r3, #0
 80012c4:	d006      	beq.n	80012d4 <HAL_GPIO_Init+0x1d8>
 80012c6:	4b39      	ldr	r3, [pc, #228]	; (80013ac <HAL_GPIO_Init+0x2b0>)
 80012c8:	681a      	ldr	r2, [r3, #0]
 80012ca:	4938      	ldr	r1, [pc, #224]	; (80013ac <HAL_GPIO_Init+0x2b0>)
 80012cc:	69bb      	ldr	r3, [r7, #24]
 80012ce:	4313      	orrs	r3, r2
 80012d0:	600b      	str	r3, [r1, #0]
 80012d2:	e006      	b.n	80012e2 <HAL_GPIO_Init+0x1e6>
 80012d4:	4b35      	ldr	r3, [pc, #212]	; (80013ac <HAL_GPIO_Init+0x2b0>)
 80012d6:	681a      	ldr	r2, [r3, #0]
 80012d8:	69bb      	ldr	r3, [r7, #24]
 80012da:	43db      	mvns	r3, r3
 80012dc:	4933      	ldr	r1, [pc, #204]	; (80013ac <HAL_GPIO_Init+0x2b0>)
 80012de:	4013      	ands	r3, r2
 80012e0:	600b      	str	r3, [r1, #0]
 80012e2:	683b      	ldr	r3, [r7, #0]
 80012e4:	685b      	ldr	r3, [r3, #4]
 80012e6:	f403 3300 	and.w	r3, r3, #131072	; 0x20000
 80012ea:	2b00      	cmp	r3, #0
 80012ec:	d006      	beq.n	80012fc <HAL_GPIO_Init+0x200>
 80012ee:	4b2f      	ldr	r3, [pc, #188]	; (80013ac <HAL_GPIO_Init+0x2b0>)
 80012f0:	685a      	ldr	r2, [r3, #4]
 80012f2:	492e      	ldr	r1, [pc, #184]	; (80013ac <HAL_GPIO_Init+0x2b0>)
 80012f4:	69bb      	ldr	r3, [r7, #24]
 80012f6:	4313      	orrs	r3, r2
 80012f8:	604b      	str	r3, [r1, #4]
 80012fa:	e006      	b.n	800130a <HAL_GPIO_Init+0x20e>
 80012fc:	4b2b      	ldr	r3, [pc, #172]	; (80013ac <HAL_GPIO_Init+0x2b0>)
 80012fe:	685a      	ldr	r2, [r3, #4]
 8001300:	69bb      	ldr	r3, [r7, #24]
 8001302:	43db      	mvns	r3, r3
 8001304:	4929      	ldr	r1, [pc, #164]	; (80013ac <HAL_GPIO_Init+0x2b0>)
 8001306:	4013      	ands	r3, r2
 8001308:	604b      	str	r3, [r1, #4]
 800130a:	683b      	ldr	r3, [r7, #0]
 800130c:	685b      	ldr	r3, [r3, #4]
 800130e:	f403 1380 	and.w	r3, r3, #1048576	; 0x100000
 8001312:	2b00      	cmp	r3, #0
 8001314:	d006      	beq.n	8001324 <HAL_GPIO_Init+0x228>
 8001316:	4b25      	ldr	r3, [pc, #148]	; (80013ac <HAL_GPIO_Init+0x2b0>)
 8001318:	689a      	ldr	r2, [r3, #8]
 800131a:	4924      	ldr	r1, [pc, #144]	; (80013ac <HAL_GPIO_Init+0x2b0>)
 800131c:	69bb      	ldr	r3, [r7, #24]
 800131e:	4313      	orrs	r3, r2
 8001320:	608b      	str	r3, [r1, #8]
 8001322:	e006      	b.n	8001332 <HAL_GPIO_Init+0x236>
 8001324:	4b21      	ldr	r3, [pc, #132]	; (80013ac <HAL_GPIO_Init+0x2b0>)
 8001326:	689a      	ldr	r2, [r3, #8]
 8001328:	69bb      	ldr	r3, [r7, #24]
 800132a:	43db      	mvns	r3, r3
 800132c:	491f      	ldr	r1, [pc, #124]	; (80013ac <HAL_GPIO_Init+0x2b0>)
 800132e:	4013      	ands	r3, r2
 8001330:	608b      	str	r3, [r1, #8]
 8001332:	683b      	ldr	r3, [r7, #0]
 8001334:	685b      	ldr	r3, [r3, #4]
 8001336:	f403 1300 	and.w	r3, r3, #2097152	; 0x200000
 800133a:	2b00      	cmp	r3, #0
 800133c:	d006      	beq.n	800134c <HAL_GPIO_Init+0x250>
 800133e:	4b1b      	ldr	r3, [pc, #108]	; (80013ac <HAL_GPIO_Init+0x2b0>)
 8001340:	68da      	ldr	r2, [r3, #12]
 8001342:	491a      	ldr	r1, [pc, #104]	; (80013ac <HAL_GPIO_Init+0x2b0>)
 8001344:	69bb      	ldr	r3, [r7, #24]
 8001346:	4313      	orrs	r3, r2
 8001348:	60cb      	str	r3, [r1, #12]
 800134a:	e006      	b.n	800135a <HAL_GPIO_Init+0x25e>
 800134c:	4b17      	ldr	r3, [pc, #92]	; (80013ac <HAL_GPIO_Init+0x2b0>)
 800134e:	68da      	ldr	r2, [r3, #12]
 8001350:	69bb      	ldr	r3, [r7, #24]
 8001352:	43db      	mvns	r3, r3
 8001354:	4915      	ldr	r1, [pc, #84]	; (80013ac <HAL_GPIO_Init+0x2b0>)
 8001356:	4013      	ands	r3, r2
 8001358:	60cb      	str	r3, [r1, #12]
 800135a:	6a7b      	ldr	r3, [r7, #36]	; 0x24
 800135c:	3301      	adds	r3, #1
 800135e:	627b      	str	r3, [r7, #36]	; 0x24
 8001360:	683b      	ldr	r3, [r7, #0]
 8001362:	681a      	ldr	r2, [r3, #0]
 8001364:	6a7b      	ldr	r3, [r7, #36]	; 0x24
 8001366:	fa22 f303 	lsr.w	r3, r2, r3
 800136a:	2b00      	cmp	r3, #0
 800136c:	f47f aed0 	bne.w	8001110 <HAL_GPIO_Init+0x14>
 8001370:	bf00      	nop
 8001372:	372c      	adds	r7, #44	; 0x2c
 8001374:	46bd      	mov	sp, r7
 8001376:	bc80      	pop	{r7}
 8001378:	4770      	bx	lr
 800137a:	bf00      	nop
 800137c:	10210000 	.word	0x10210000
 8001380:	10110000 	.word	0x10110000
 8001384:	10120000 	.word	0x10120000
 8001388:	10310000 	.word	0x10310000
 800138c:	10320000 	.word	0x10320000
 8001390:	10220000 	.word	0x10220000
 8001394:	40021000 	.word	0x40021000
 8001398:	40010000 	.word	0x40010000
 800139c:	40010800 	.word	0x40010800
 80013a0:	40010c00 	.word	0x40010c00
 80013a4:	40011000 	.word	0x40011000
 80013a8:	40011400 	.word	0x40011400
 80013ac:	40010400 	.word	0x40010400

080013b0 <HAL_GPIO_WritePin>:
 80013b0:	b480      	push	{r7}
 80013b2:	b083      	sub	sp, #12
 80013b4:	af00      	add	r7, sp, #0
 80013b6:	6078      	str	r0, [r7, #4]
 80013b8:	460b      	mov	r3, r1
 80013ba:	807b      	strh	r3, [r7, #2]
 80013bc:	4613      	mov	r3, r2
 80013be:	707b      	strb	r3, [r7, #1]
 80013c0:	787b      	ldrb	r3, [r7, #1]
 80013c2:	2b00      	cmp	r3, #0
 80013c4:	d003      	beq.n	80013ce <HAL_GPIO_WritePin+0x1e>
 80013c6:	887a      	ldrh	r2, [r7, #2]
 80013c8:	687b      	ldr	r3, [r7, #4]
 80013ca:	611a      	str	r2, [r3, #16]
 80013cc:	e003      	b.n	80013d6 <HAL_GPIO_WritePin+0x26>
 80013ce:	887b      	ldrh	r3, [r7, #2]
 80013d0:	041a      	lsls	r2, r3, #16
 80013d2:	687b      	ldr	r3, [r7, #4]
 80013d4:	611a      	str	r2, [r3, #16]
 80013d6:	bf00      	nop
 80013d8:	370c      	adds	r7, #12
 80013da:	46bd      	mov	sp, r7
 80013dc:	bc80      	pop	{r7}
 80013de:	4770      	bx	lr

080013e0 <HAL_GPIO_TogglePin>:
 80013e0:	b480      	push	{r7}
 80013e2:	b083      	sub	sp, #12
 80013e4:	af00      	add	r7, sp, #0
 80013e6:	6078      	str	r0, [r7, #4]
 80013e8:	460b      	mov	r3, r1
 80013ea:	807b      	strh	r3, [r7, #2]
 80013ec:	687b      	ldr	r3, [r7, #4]
 80013ee:	68da      	ldr	r2, [r3, #12]
 80013f0:	887b      	ldrh	r3, [r7, #2]
 80013f2:	4013      	ands	r3, r2
 80013f4:	2b00      	cmp	r3, #0
 80013f6:	d003      	beq.n	8001400 <HAL_GPIO_TogglePin+0x20>
 80013f8:	887a      	ldrh	r2, [r7, #2]
 80013fa:	687b      	ldr	r3, [r7, #4]
 80013fc:	615a      	str	r2, [r3, #20]
 80013fe:	e002      	b.n	8001406 <HAL_GPIO_TogglePin+0x26>
 8001400:	887a      	ldrh	r2, [r7, #2]
 8001402:	687b      	ldr	r3, [r7, #4]
 8001404:	611a      	str	r2, [r3, #16]
 8001406:	bf00      	nop
 8001408:	370c      	adds	r7, #12
 800140a:	46bd      	mov	sp, r7
 800140c:	bc80      	pop	{r7}
 800140e:	4770      	bx	lr

08001410 <HAL_GPIO_EXTI_IRQHandler>:
 8001410:	b580      	push	{r7, lr}
 8001412:	b082      	sub	sp, #8
 8001414:	af00      	add	r7, sp, #0
 8001416:	4603      	mov	r3, r0
 8001418:	80fb      	strh	r3, [r7, #6]
 800141a:	4b08      	ldr	r3, [pc, #32]	; (800143c <HAL_GPIO_EXTI_IRQHandler+0x2c>)
 800141c:	695a      	ldr	r2, [r3, #20]
 800141e:	88fb      	ldrh	r3, [r7, #6]
 8001420:	4013      	ands	r3, r2
 8001422:	2b00      	cmp	r3, #0
 8001424:	d006      	beq.n	8001434 <HAL_GPIO_EXTI_IRQHandler+0x24>
 8001426:	4a05      	ldr	r2, [pc, #20]	; (800143c <HAL_GPIO_EXTI_IRQHandler+0x2c>)
 8001428:	88fb      	ldrh	r3, [r7, #6]
 800142a:	6153      	str	r3, [r2, #20]
 800142c:	88fb      	ldrh	r3, [r7, #6]
 800142e:	4618      	mov	r0, r3
 8001430:	f001 ffa2 	bl	8003378 <HAL_GPIO_EXTI_Callback>
 8001434:	bf00      	nop
 8001436:	3708      	adds	r7, #8
 8001438:	46bd      	mov	sp, r7
 800143a:	bd80      	pop	{r7, pc}
 800143c:	40010400 	.word	0x40010400

08001440 <HAL_RCC_OscConfig>:
 8001440:	b580      	push	{r7, lr}
 8001442:	b086      	sub	sp, #24
 8001444:	af00      	add	r7, sp, #0
 8001446:	6078      	str	r0, [r7, #4]
 8001448:	687b      	ldr	r3, [r7, #4]
 800144a:	2b00      	cmp	r3, #0
 800144c:	d101      	bne.n	8001452 <HAL_RCC_OscConfig+0x12>
 800144e:	2301      	movs	r3, #1
 8001450:	e26c      	b.n	800192c <HAL_RCC_OscConfig+0x4ec>
 8001452:	687b      	ldr	r3, [r7, #4]
 8001454:	681b      	ldr	r3, [r3, #0]
 8001456:	f003 0301 	and.w	r3, r3, #1
 800145a:	2b00      	cmp	r3, #0
 800145c:	f000 8087 	beq.w	800156e <HAL_RCC_OscConfig+0x12e>
 8001460:	4b92      	ldr	r3, [pc, #584]	; (80016ac <HAL_RCC_OscConfig+0x26c>)
 8001462:	685b      	ldr	r3, [r3, #4]
 8001464:	f003 030c 	and.w	r3, r3, #12
 8001468:	2b04      	cmp	r3, #4
 800146a:	d00c      	beq.n	8001486 <HAL_RCC_OscConfig+0x46>
 800146c:	4b8f      	ldr	r3, [pc, #572]	; (80016ac <HAL_RCC_OscConfig+0x26c>)
 800146e:	685b      	ldr	r3, [r3, #4]
 8001470:	f003 030c 	and.w	r3, r3, #12
 8001474:	2b08      	cmp	r3, #8
 8001476:	d112      	bne.n	800149e <HAL_RCC_OscConfig+0x5e>
 8001478:	4b8c      	ldr	r3, [pc, #560]	; (80016ac <HAL_RCC_OscConfig+0x26c>)
 800147a:	685b      	ldr	r3, [r3, #4]
 800147c:	f403 3380 	and.w	r3, r3, #65536	; 0x10000
 8001480:	f5b3 3f80 	cmp.w	r3, #65536	; 0x10000
 8001484:	d10b      	bne.n	800149e <HAL_RCC_OscConfig+0x5e>
 8001486:	4b89      	ldr	r3, [pc, #548]	; (80016ac <HAL_RCC_OscConfig+0x26c>)
 8001488:	681b      	ldr	r3, [r3, #0]
 800148a:	f403 3300 	and.w	r3, r3, #131072	; 0x20000
 800148e:	2b00      	cmp	r3, #0
 8001490:	d06c      	beq.n	800156c <HAL_RCC_OscConfig+0x12c>
 8001492:	687b      	ldr	r3, [r7, #4]
 8001494:	685b      	ldr	r3, [r3, #4]
 8001496:	2b00      	cmp	r3, #0
 8001498:	d168      	bne.n	800156c <HAL_RCC_OscConfig+0x12c>
 800149a:	2301      	movs	r3, #1
 800149c:	e246      	b.n	800192c <HAL_RCC_OscConfig+0x4ec>
 800149e:	687b      	ldr	r3, [r7, #4]
 80014a0:	685b      	ldr	r3, [r3, #4]
 80014a2:	f5b3 3f80 	cmp.w	r3, #65536	; 0x10000
 80014a6:	d106      	bne.n	80014b6 <HAL_RCC_OscConfig+0x76>
 80014a8:	4b80      	ldr	r3, [pc, #512]	; (80016ac <HAL_RCC_OscConfig+0x26c>)
 80014aa:	681b      	ldr	r3, [r3, #0]
 80014ac:	4a7f      	ldr	r2, [pc, #508]	; (80016ac <HAL_RCC_OscConfig+0x26c>)
 80014ae:	f443 3380 	orr.w	r3, r3, #65536	; 0x10000
 80014b2:	6013      	str	r3, [r2, #0]
 80014b4:	e02e      	b.n	8001514 <HAL_RCC_OscConfig+0xd4>
 80014b6:	687b      	ldr	r3, [r7, #4]
 80014b8:	685b      	ldr	r3, [r3, #4]
 80014ba:	2b00      	cmp	r3, #0
 80014bc:	d10c      	bne.n	80014d8 <HAL_RCC_OscConfig+0x98>
 80014be:	4b7b      	ldr	r3, [pc, #492]	; (80016ac <HAL_RCC_OscConfig+0x26c>)
 80014c0:	681b      	ldr	r3, [r3, #0]
 80014c2:	4a7a      	ldr	r2, [pc, #488]	; (80016ac <HAL_RCC_OscConfig+0x26c>)
 80014c4:	f423 3380 	bic.w	r3, r3, #65536	; 0x10000
 80014c8:	6013      	str	r3, [r2, #0]
 80014ca:	4b78      	ldr	r3, [pc, #480]	; (80016ac <HAL_RCC_OscConfig+0x26c>)
 80014cc:	681b      	ldr	r3, [r3, #0]
 80014ce:	4a77      	ldr	r2, [pc, #476]	; (80016ac <HAL_RCC_OscConfig+0x26c>)
 80014d0:	f423 2380 	bic.w	r3, r3, #262144	; 0x40000
 80014d4:	6013      	str	r3, [r2, #0]
 80014d6:	e01d      	b.n	8001514 <HAL_RCC_OscConfig+0xd4>
 80014d8:	687b      	ldr	r3, [r7, #4]
 80014da:	685b      	ldr	r3, [r3, #4]
 80014dc:	f5b3 2fa0 	cmp.w	r3, #327680	; 0x50000
 80014e0:	d10c      	bne.n	80014fc <HAL_RCC_OscConfig+0xbc>
 80014e2:	4b72      	ldr	r3, [pc, #456]	; (80016ac <HAL_RCC_OscConfig+0x26c>)
 80014e4:	681b      	ldr	r3, [r3, #0]
 80014e6:	4a71      	ldr	r2, [pc, #452]	; (80016ac <HAL_RCC_OscConfig+0x26c>)
 80014e8:	f443 2380 	orr.w	r3, r3, #262144	; 0x40000
 80014ec:	6013      	str	r3, [r2, #0]
 80014ee:	4b6f      	ldr	r3, [pc, #444]	; (80016ac <HAL_RCC_OscConfig+0x26c>)
 80014f0:	681b      	ldr	r3, [r3, #0]
 80014f2:	4a6e      	ldr	r2, [pc, #440]	; (80016ac <HAL_RCC_OscConfig+0x26c>)
 80014f4:	f443 3380 	orr.w	r3, r3, #65536	; 0x10000
 80014f8:	6013      	str	r3, [r2, #0]
 80014fa:	e00b      	b.n	8001514 <HAL_RCC_OscConfig+0xd4>
 80014fc:	4b6b      	ldr	r3, [pc, #428]	; (80016ac <HAL_RCC_OscConfig+0x26c>)
 80014fe:	681b      	ldr	r3, [r3, #0]
 8001500:	4a6a      	ldr	r2, [pc, #424]	; (80016ac <HAL_RCC_OscConfig+0x26c>)
 8001502:	f423 3380 	bic.w	r3, r3, #65536	; 0x10000
 8001506:	6013      	str	r3, [r2, #0]
 8001508:	4b68      	ldr	r3, [pc, #416]	; (80016ac <HAL_RCC_OscConfig+0x26c>)
 800150a:	681b      	ldr	r3, [r3, #0]
 800150c:	4a67      	ldr	r2, [pc, #412]	; (80016ac <HAL_RCC_OscConfig+0x26c>)
 800150e:	f423 2380 	bic.w	r3, r3, #262144	; 0x40000
 8001512:	6013      	str	r3, [r2, #0]
 8001514:	687b      	ldr	r3, [r7, #4]
 8001516:	685b      	ldr	r3, [r3, #4]
 8001518:	2b00      	cmp	r3, #0
 800151a:	d013      	beq.n	8001544 <HAL_RCC_OscConfig+0x104>
 800151c:	f7fe fe6e 	bl	80001fc <HAL_GetTick>
 8001520:	6138      	str	r0, [r7, #16]
 8001522:	e008      	b.n	8001536 <HAL_RCC_OscConfig+0xf6>
 8001524:	f7fe fe6a 	bl	80001fc <HAL_GetTick>
 8001528:	4602      	mov	r2, r0
 800152a:	693b      	ldr	r3, [r7, #16]
 800152c:	1ad3      	subs	r3, r2, r3
 800152e:	2b64      	cmp	r3, #100	; 0x64
 8001530:	d901      	bls.n	8001536 <HAL_RCC_OscConfig+0xf6>
 8001532:	2303      	movs	r3, #3
 8001534:	e1fa      	b.n	800192c <HAL_RCC_OscConfig+0x4ec>
 8001536:	4b5d      	ldr	r3, [pc, #372]	; (80016ac <HAL_RCC_OscConfig+0x26c>)
 8001538:	681b      	ldr	r3, [r3, #0]
 800153a:	f403 3300 	and.w	r3, r3, #131072	; 0x20000
 800153e:	2b00      	cmp	r3, #0
 8001540:	d0f0      	beq.n	8001524 <HAL_RCC_OscConfig+0xe4>
 8001542:	e014      	b.n	800156e <HAL_RCC_OscConfig+0x12e>
 8001544:	f7fe fe5a 	bl	80001fc <HAL_GetTick>
 8001548:	6138      	str	r0, [r7, #16]
 800154a:	e008      	b.n	800155e <HAL_RCC_OscConfig+0x11e>
 800154c:	f7fe fe56 	bl	80001fc <HAL_GetTick>
 8001550:	4602      	mov	r2, r0
 8001552:	693b      	ldr	r3, [r7, #16]
 8001554:	1ad3      	subs	r3, r2, r3
 8001556:	2b64      	cmp	r3, #100	; 0x64
 8001558:	d901      	bls.n	800155e <HAL_RCC_OscConfig+0x11e>
 800155a:	2303      	movs	r3, #3
 800155c:	e1e6      	b.n	800192c <HAL_RCC_OscConfig+0x4ec>
 800155e:	4b53      	ldr	r3, [pc, #332]	; (80016ac <HAL_RCC_OscConfig+0x26c>)
 8001560:	681b      	ldr	r3, [r3, #0]
 8001562:	f403 3300 	and.w	r3, r3, #131072	; 0x20000
 8001566:	2b00      	cmp	r3, #0
 8001568:	d1f0      	bne.n	800154c <HAL_RCC_OscConfig+0x10c>
 800156a:	e000      	b.n	800156e <HAL_RCC_OscConfig+0x12e>
 800156c:	bf00      	nop
 800156e:	687b      	ldr	r3, [r7, #4]
 8001570:	681b      	ldr	r3, [r3, #0]
 8001572:	f003 0302 	and.w	r3, r3, #2
 8001576:	2b00      	cmp	r3, #0
 8001578:	d063      	beq.n	8001642 <HAL_RCC_OscConfig+0x202>
 800157a:	4b4c      	ldr	r3, [pc, #304]	; (80016ac <HAL_RCC_OscConfig+0x26c>)
 800157c:	685b      	ldr	r3, [r3, #4]
 800157e:	f003 030c 	and.w	r3, r3, #12
 8001582:	2b00      	cmp	r3, #0
 8001584:	d00b      	beq.n	800159e <HAL_RCC_OscConfig+0x15e>
 8001586:	4b49      	ldr	r3, [pc, #292]	; (80016ac <HAL_RCC_OscConfig+0x26c>)
 8001588:	685b      	ldr	r3, [r3, #4]
 800158a:	f003 030c 	and.w	r3, r3, #12
 800158e:	2b08      	cmp	r3, #8
 8001590:	d11c      	bne.n	80015cc <HAL_RCC_OscConfig+0x18c>
 8001592:	4b46      	ldr	r3, [pc, #280]	; (80016ac <HAL_RCC_OscConfig+0x26c>)
 8001594:	685b      	ldr	r3, [r3, #4]
 8001596:	f403 3380 	and.w	r3, r3, #65536	; 0x10000
 800159a:	2b00      	cmp	r3, #0
 800159c:	d116      	bne.n	80015cc <HAL_RCC_OscConfig+0x18c>
 800159e:	4b43      	ldr	r3, [pc, #268]	; (80016ac <HAL_RCC_OscConfig+0x26c>)
 80015a0:	681b      	ldr	r3, [r3, #0]
 80015a2:	f003 0302 	and.w	r3, r3, #2
 80015a6:	2b00      	cmp	r3, #0
 80015a8:	d005      	beq.n	80015b6 <HAL_RCC_OscConfig+0x176>
 80015aa:	687b      	ldr	r3, [r7, #4]
 80015ac:	691b      	ldr	r3, [r3, #16]
 80015ae:	2b01      	cmp	r3, #1
 80015b0:	d001      	beq.n	80015b6 <HAL_RCC_OscConfig+0x176>
 80015b2:	2301      	movs	r3, #1
 80015b4:	e1ba      	b.n	800192c <HAL_RCC_OscConfig+0x4ec>
 80015b6:	4b3d      	ldr	r3, [pc, #244]	; (80016ac <HAL_RCC_OscConfig+0x26c>)
 80015b8:	681b      	ldr	r3, [r3, #0]
 80015ba:	f023 02f8 	bic.w	r2, r3, #248	; 0xf8
 80015be:	687b      	ldr	r3, [r7, #4]
 80015c0:	695b      	ldr	r3, [r3, #20]
 80015c2:	00db      	lsls	r3, r3, #3
 80015c4:	4939      	ldr	r1, [pc, #228]	; (80016ac <HAL_RCC_OscConfig+0x26c>)
 80015c6:	4313      	orrs	r3, r2
 80015c8:	600b      	str	r3, [r1, #0]
 80015ca:	e03a      	b.n	8001642 <HAL_RCC_OscConfig+0x202>
 80015cc:	687b      	ldr	r3, [r7, #4]
 80015ce:	691b      	ldr	r3, [r3, #16]
 80015d0:	2b00      	cmp	r3, #0
 80015d2:	d020      	beq.n	8001616 <HAL_RCC_OscConfig+0x1d6>
 80015d4:	4b36      	ldr	r3, [pc, #216]	; (80016b0 <HAL_RCC_OscConfig+0x270>)
 80015d6:	2201      	movs	r2, #1
 80015d8:	601a      	str	r2, [r3, #0]
 80015da:	f7fe fe0f 	bl	80001fc <HAL_GetTick>
 80015de:	6138      	str	r0, [r7, #16]
 80015e0:	e008      	b.n	80015f4 <HAL_RCC_OscConfig+0x1b4>
 80015e2:	f7fe fe0b 	bl	80001fc <HAL_GetTick>
 80015e6:	4602      	mov	r2, r0
 80015e8:	693b      	ldr	r3, [r7, #16]
 80015ea:	1ad3      	subs	r3, r2, r3
 80015ec:	2b02      	cmp	r3, #2
 80015ee:	d901      	bls.n	80015f4 <HAL_RCC_OscConfig+0x1b4>
 80015f0:	2303      	movs	r3, #3
 80015f2:	e19b      	b.n	800192c <HAL_RCC_OscConfig+0x4ec>
 80015f4:	4b2d      	ldr	r3, [pc, #180]	; (80016ac <HAL_RCC_OscConfig+0x26c>)
 80015f6:	681b      	ldr	r3, [r3, #0]
 80015f8:	f003 0302 	and.w	r3, r3, #2
 80015fc:	2b00      	cmp	r3, #0
 80015fe:	d0f0      	beq.n	80015e2 <HAL_RCC_OscConfig+0x1a2>
 8001600:	4b2a      	ldr	r3, [pc, #168]	; (80016ac <HAL_RCC_OscConfig+0x26c>)
 8001602:	681b      	ldr	r3, [r3, #0]
 8001604:	f023 02f8 	bic.w	r2, r3, #248	; 0xf8
 8001608:	687b      	ldr	r3, [r7, #4]
 800160a:	695b      	ldr	r3, [r3, #20]
 800160c:	00db      	lsls	r3, r3, #3
 800160e:	4927      	ldr	r1, [pc, #156]	; (80016ac <HAL_RCC_OscConfig+0x26c>)
 8001610:	4313      	orrs	r3, r2
 8001612:	600b      	str	r3, [r1, #0]
 8001614:	e015      	b.n	8001642 <HAL_RCC_OscConfig+0x202>
 8001616:	4b26      	ldr	r3, [pc, #152]	; (80016b0 <HAL_RCC_OscConfig+0x270>)
 8001618:	2200      	movs	r2, #0
 800161a:	601a      	str	r2, [r3, #0]
 800161c:	f7fe fdee 	bl	80001fc <HAL_GetTick>
 8001620:	6138      	str	r0, [r7, #16]
 8001622:	e008      	b.n	8001636 <HAL_RCC_OscConfig+0x1f6>
 8001624:	f7fe fdea 	bl	80001fc <HAL_GetTick>
 8001628:	4602      	mov	r2, r0
 800162a:	693b      	ldr	r3, [r7, #16]
 800162c:	1ad3      	subs	r3, r2, r3
 800162e:	2b02      	cmp	r3, #2
 8001630:	d901      	bls.n	8001636 <HAL_RCC_OscConfig+0x1f6>
 8001632:	2303      	movs	r3, #3
 8001634:	e17a      	b.n	800192c <HAL_RCC_OscConfig+0x4ec>
 8001636:	4b1d      	ldr	r3, [pc, #116]	; (80016ac <HAL_RCC_OscConfig+0x26c>)
 8001638:	681b      	ldr	r3, [r3, #0]
 800163a:	f003 0302 	and.w	r3, r3, #2
 800163e:	2b00      	cmp	r3, #0
 8001640:	d1f0      	bne.n	8001624 <HAL_RCC_OscConfig+0x1e4>
 8001642:	687b      	ldr	r3, [r7, #4]
 8001644:	681b      	ldr	r3, [r3, #0]
 8001646:	f003 0308 	and.w	r3, r3, #8
 800164a:	2b00      	cmp	r3, #0
 800164c:	d03a      	beq.n	80016c4 <HAL_RCC_OscConfig+0x284>
 800164e:	687b      	ldr	r3, [r7, #4]
 8001650:	699b      	ldr	r3, [r3, #24]
 8001652:	2b00      	cmp	r3, #0
 8001654:	d019      	beq.n	800168a <HAL_RCC_OscConfig+0x24a>
 8001656:	4b17      	ldr	r3, [pc, #92]	; (80016b4 <HAL_RCC_OscConfig+0x274>)
 8001658:	2201      	movs	r2, #1
 800165a:	601a      	str	r2, [r3, #0]
 800165c:	f7fe fdce 	bl	80001fc <HAL_GetTick>
 8001660:	6138      	str	r0, [r7, #16]
 8001662:	e008      	b.n	8001676 <HAL_RCC_OscConfig+0x236>
 8001664:	f7fe fdca 	bl	80001fc <HAL_GetTick>
 8001668:	4602      	mov	r2, r0
 800166a:	693b      	ldr	r3, [r7, #16]
 800166c:	1ad3      	subs	r3, r2, r3
 800166e:	2b02      	cmp	r3, #2
 8001670:	d901      	bls.n	8001676 <HAL_RCC_OscConfig+0x236>
 8001672:	2303      	movs	r3, #3
 8001674:	e15a      	b.n	800192c <HAL_RCC_OscConfig+0x4ec>
 8001676:	4b0d      	ldr	r3, [pc, #52]	; (80016ac <HAL_RCC_OscConfig+0x26c>)
 8001678:	6a5b      	ldr	r3, [r3, #36]	; 0x24
 800167a:	f003 0302 	and.w	r3, r3, #2
 800167e:	2b00      	cmp	r3, #0
 8001680:	d0f0      	beq.n	8001664 <HAL_RCC_OscConfig+0x224>
 8001682:	2001      	movs	r0, #1
 8001684:	f000 fac6 	bl	8001c14 <RCC_Delay>
 8001688:	e01c      	b.n	80016c4 <HAL_RCC_OscConfig+0x284>
 800168a:	4b0a      	ldr	r3, [pc, #40]	; (80016b4 <HAL_RCC_OscConfig+0x274>)
 800168c:	2200      	movs	r2, #0
 800168e:	601a      	str	r2, [r3, #0]
 8001690:	f7fe fdb4 	bl	80001fc <HAL_GetTick>
 8001694:	6138      	str	r0, [r7, #16]
 8001696:	e00f      	b.n	80016b8 <HAL_RCC_OscConfig+0x278>
 8001698:	f7fe fdb0 	bl	80001fc <HAL_GetTick>
 800169c:	4602      	mov	r2, r0
 800169e:	693b      	ldr	r3, [r7, #16]
 80016a0:	1ad3      	subs	r3, r2, r3
 80016a2:	2b02      	cmp	r3, #2
 80016a4:	d908      	bls.n	80016b8 <HAL_RCC_OscConfig+0x278>
 80016a6:	2303      	movs	r3, #3
 80016a8:	e140      	b.n	800192c <HAL_RCC_OscConfig+0x4ec>
 80016aa:	bf00      	nop
 80016ac:	40021000 	.word	0x40021000
 80016b0:	42420000 	.word	0x42420000
 80016b4:	42420480 	.word	0x42420480
 80016b8:	4b9e      	ldr	r3, [pc, #632]	; (8001934 <HAL_RCC_OscConfig+0x4f4>)
 80016ba:	6a5b      	ldr	r3, [r3, #36]	; 0x24
 80016bc:	f003 0302 	and.w	r3, r3, #2
 80016c0:	2b00      	cmp	r3, #0
 80016c2:	d1e9      	bne.n	8001698 <HAL_RCC_OscConfig+0x258>
 80016c4:	687b      	ldr	r3, [r7, #4]
 80016c6:	681b      	ldr	r3, [r3, #0]
 80016c8:	f003 0304 	and.w	r3, r3, #4
 80016cc:	2b00      	cmp	r3, #0
 80016ce:	f000 80a6 	beq.w	800181e <HAL_RCC_OscConfig+0x3de>
 80016d2:	2300      	movs	r3, #0
 80016d4:	75fb      	strb	r3, [r7, #23]
 80016d6:	4b97      	ldr	r3, [pc, #604]	; (8001934 <HAL_RCC_OscConfig+0x4f4>)
 80016d8:	69db      	ldr	r3, [r3, #28]
 80016da:	f003 5380 	and.w	r3, r3, #268435456	; 0x10000000
 80016de:	2b00      	cmp	r3, #0
 80016e0:	d10d      	bne.n	80016fe <HAL_RCC_OscConfig+0x2be>
 80016e2:	4b94      	ldr	r3, [pc, #592]	; (8001934 <HAL_RCC_OscConfig+0x4f4>)
 80016e4:	69db      	ldr	r3, [r3, #28]
 80016e6:	4a93      	ldr	r2, [pc, #588]	; (8001934 <HAL_RCC_OscConfig+0x4f4>)
 80016e8:	f043 5380 	orr.w	r3, r3, #268435456	; 0x10000000
 80016ec:	61d3      	str	r3, [r2, #28]
 80016ee:	4b91      	ldr	r3, [pc, #580]	; (8001934 <HAL_RCC_OscConfig+0x4f4>)
 80016f0:	69db      	ldr	r3, [r3, #28]
 80016f2:	f003 5380 	and.w	r3, r3, #268435456	; 0x10000000
 80016f6:	60bb      	str	r3, [r7, #8]
 80016f8:	68bb      	ldr	r3, [r7, #8]
 80016fa:	2301      	movs	r3, #1
 80016fc:	75fb      	strb	r3, [r7, #23]
 80016fe:	4b8e      	ldr	r3, [pc, #568]	; (8001938 <HAL_RCC_OscConfig+0x4f8>)
 8001700:	681b      	ldr	r3, [r3, #0]
 8001702:	f403 7380 	and.w	r3, r3, #256	; 0x100
 8001706:	2b00      	cmp	r3, #0
 8001708:	d118      	bne.n	800173c <HAL_RCC_OscConfig+0x2fc>
 800170a:	4b8b      	ldr	r3, [pc, #556]	; (8001938 <HAL_RCC_OscConfig+0x4f8>)
 800170c:	681b      	ldr	r3, [r3, #0]
 800170e:	4a8a      	ldr	r2, [pc, #552]	; (8001938 <HAL_RCC_OscConfig+0x4f8>)
 8001710:	f443 7380 	orr.w	r3, r3, #256	; 0x100
 8001714:	6013      	str	r3, [r2, #0]
 8001716:	f7fe fd71 	bl	80001fc <HAL_GetTick>
 800171a:	6138      	str	r0, [r7, #16]
 800171c:	e008      	b.n	8001730 <HAL_RCC_OscConfig+0x2f0>
 800171e:	f7fe fd6d 	bl	80001fc <HAL_GetTick>
 8001722:	4602      	mov	r2, r0
 8001724:	693b      	ldr	r3, [r7, #16]
 8001726:	1ad3      	subs	r3, r2, r3
 8001728:	2b64      	cmp	r3, #100	; 0x64
 800172a:	d901      	bls.n	8001730 <HAL_RCC_OscConfig+0x2f0>
 800172c:	2303      	movs	r3, #3
 800172e:	e0fd      	b.n	800192c <HAL_RCC_OscConfig+0x4ec>
 8001730:	4b81      	ldr	r3, [pc, #516]	; (8001938 <HAL_RCC_OscConfig+0x4f8>)
 8001732:	681b      	ldr	r3, [r3, #0]
 8001734:	f403 7380 	and.w	r3, r3, #256	; 0x100
 8001738:	2b00      	cmp	r3, #0
 800173a:	d0f0      	beq.n	800171e <HAL_RCC_OscConfig+0x2de>
 800173c:	687b      	ldr	r3, [r7, #4]
 800173e:	68db      	ldr	r3, [r3, #12]
 8001740:	2b01      	cmp	r3, #1
 8001742:	d106      	bne.n	8001752 <HAL_RCC_OscConfig+0x312>
 8001744:	4b7b      	ldr	r3, [pc, #492]	; (8001934 <HAL_RCC_OscConfig+0x4f4>)
 8001746:	6a1b      	ldr	r3, [r3, #32]
 8001748:	4a7a      	ldr	r2, [pc, #488]	; (8001934 <HAL_RCC_OscConfig+0x4f4>)
 800174a:	f043 0301 	orr.w	r3, r3, #1
 800174e:	6213      	str	r3, [r2, #32]
 8001750:	e02d      	b.n	80017ae <HAL_RCC_OscConfig+0x36e>
 8001752:	687b      	ldr	r3, [r7, #4]
 8001754:	68db      	ldr	r3, [r3, #12]
 8001756:	2b00      	cmp	r3, #0
 8001758:	d10c      	bne.n	8001774 <HAL_RCC_OscConfig+0x334>
 800175a:	4b76      	ldr	r3, [pc, #472]	; (8001934 <HAL_RCC_OscConfig+0x4f4>)
 800175c:	6a1b      	ldr	r3, [r3, #32]
 800175e:	4a75      	ldr	r2, [pc, #468]	; (8001934 <HAL_RCC_OscConfig+0x4f4>)
 8001760:	f023 0301 	bic.w	r3, r3, #1
 8001764:	6213      	str	r3, [r2, #32]
 8001766:	4b73      	ldr	r3, [pc, #460]	; (8001934 <HAL_RCC_OscConfig+0x4f4>)
 8001768:	6a1b      	ldr	r3, [r3, #32]
 800176a:	4a72      	ldr	r2, [pc, #456]	; (8001934 <HAL_RCC_OscConfig+0x4f4>)
 800176c:	f023 0304 	bic.w	r3, r3, #4
 8001770:	6213      	str	r3, [r2, #32]
 8001772:	e01c      	b.n	80017ae <HAL_RCC_OscConfig+0x36e>
 8001774:	687b      	ldr	r3, [r7, #4]
 8001776:	68db      	ldr	r3, [r3, #12]
 8001778:	2b05      	cmp	r3, #5
 800177a:	d10c      	bne.n	8001796 <HAL_RCC_OscConfig+0x356>
 800177c:	4b6d      	ldr	r3, [pc, #436]	; (8001934 <HAL_RCC_OscConfig+0x4f4>)
 800177e:	6a1b      	ldr	r3, [r3, #32]
 8001780:	4a6c      	ldr	r2, [pc, #432]	; (8001934 <HAL_RCC_OscConfig+0x4f4>)
 8001782:	f043 0304 	orr.w	r3, r3, #4
 8001786:	6213      	str	r3, [r2, #32]
 8001788:	4b6a      	ldr	r3, [pc, #424]	; (8001934 <HAL_RCC_OscConfig+0x4f4>)
 800178a:	6a1b      	ldr	r3, [r3, #32]
 800178c:	4a69      	ldr	r2, [pc, #420]	; (8001934 <HAL_RCC_OscConfig+0x4f4>)
 800178e:	f043 0301 	orr.w	r3, r3, #1
 8001792:	6213      	str	r3, [r2, #32]
 8001794:	e00b      	b.n	80017ae <HAL_RCC_OscConfig+0x36e>
 8001796:	4b67      	ldr	r3, [pc, #412]	; (8001934 <HAL_RCC_OscConfig+0x4f4>)
 8001798:	6a1b      	ldr	r3, [r3, #32]
 800179a:	4a66      	ldr	r2, [pc, #408]	; (8001934 <HAL_RCC_OscConfig+0x4f4>)
 800179c:	f023 0301 	bic.w	r3, r3, #1
 80017a0:	6213      	str	r3, [r2, #32]
 80017a2:	4b64      	ldr	r3, [pc, #400]	; (8001934 <HAL_RCC_OscConfig+0x4f4>)
 80017a4:	6a1b      	ldr	r3, [r3, #32]
 80017a6:	4a63      	ldr	r2, [pc, #396]	; (8001934 <HAL_RCC_OscConfig+0x4f4>)
 80017a8:	f023 0304 	bic.w	r3, r3, #4
 80017ac:	6213      	str	r3, [r2, #32]
 80017ae:	687b      	ldr	r3, [r7, #4]
 80017b0:	68db      	ldr	r3, [r3, #12]
 80017b2:	2b00      	cmp	r3, #0
 80017b4:	d015      	beq.n	80017e2 <HAL_RCC_OscConfig+0x3a2>
 80017b6:	f7fe fd21 	bl	80001fc <HAL_GetTick>
 80017ba:	6138      	str	r0, [r7, #16]
 80017bc:	e00a      	b.n	80017d4 <HAL_RCC_OscConfig+0x394>
 80017be:	f7fe fd1d 	bl	80001fc <HAL_GetTick>
 80017c2:	4602      	mov	r2, r0
 80017c4:	693b      	ldr	r3, [r7, #16]
 80017c6:	1ad3      	subs	r3, r2, r3
 80017c8:	f241 3288 	movw	r2, #5000	; 0x1388
 80017cc:	4293      	cmp	r3, r2
 80017ce:	d901      	bls.n	80017d4 <HAL_RCC_OscConfig+0x394>
 80017d0:	2303      	movs	r3, #3
 80017d2:	e0ab      	b.n	800192c <HAL_RCC_OscConfig+0x4ec>
 80017d4:	4b57      	ldr	r3, [pc, #348]	; (8001934 <HAL_RCC_OscConfig+0x4f4>)
 80017d6:	6a1b      	ldr	r3, [r3, #32]
 80017d8:	f003 0302 	and.w	r3, r3, #2
 80017dc:	2b00      	cmp	r3, #0
 80017de:	d0ee      	beq.n	80017be <HAL_RCC_OscConfig+0x37e>
 80017e0:	e014      	b.n	800180c <HAL_RCC_OscConfig+0x3cc>
 80017e2:	f7fe fd0b 	bl	80001fc <HAL_GetTick>
 80017e6:	6138      	str	r0, [r7, #16]
 80017e8:	e00a      	b.n	8001800 <HAL_RCC_OscConfig+0x3c0>
 80017ea:	f7fe fd07 	bl	80001fc <HAL_GetTick>
 80017ee:	4602      	mov	r2, r0
 80017f0:	693b      	ldr	r3, [r7, #16]
 80017f2:	1ad3      	subs	r3, r2, r3
 80017f4:	f241 3288 	movw	r2, #5000	; 0x1388
 80017f8:	4293      	cmp	r3, r2
 80017fa:	d901      	bls.n	8001800 <HAL_RCC_OscConfig+0x3c0>
 80017fc:	2303      	movs	r3, #3
 80017fe:	e095      	b.n	800192c <HAL_RCC_OscConfig+0x4ec>
 8001800:	4b4c      	ldr	r3, [pc, #304]	; (8001934 <HAL_RCC_OscConfig+0x4f4>)
 8001802:	6a1b      	ldr	r3, [r3, #32]
 8001804:	f003 0302 	and.w	r3, r3, #2
 8001808:	2b00      	cmp	r3, #0
 800180a:	d1ee      	bne.n	80017ea <HAL_RCC_OscConfig+0x3aa>
 800180c:	7dfb      	ldrb	r3, [r7, #23]
 800180e:	2b01      	cmp	r3, #1
 8001810:	d105      	bne.n	800181e <HAL_RCC_OscConfig+0x3de>
 8001812:	4b48      	ldr	r3, [pc, #288]	; (8001934 <HAL_RCC_OscConfig+0x4f4>)
 8001814:	69db      	ldr	r3, [r3, #28]
 8001816:	4a47      	ldr	r2, [pc, #284]	; (8001934 <HAL_RCC_OscConfig+0x4f4>)
 8001818:	f023 5380 	bic.w	r3, r3, #268435456	; 0x10000000
 800181c:	61d3      	str	r3, [r2, #28]
 800181e:	687b      	ldr	r3, [r7, #4]
 8001820:	69db      	ldr	r3, [r3, #28]
 8001822:	2b00      	cmp	r3, #0
 8001824:	f000 8081 	beq.w	800192a <HAL_RCC_OscConfig+0x4ea>
 8001828:	4b42      	ldr	r3, [pc, #264]	; (8001934 <HAL_RCC_OscConfig+0x4f4>)
 800182a:	685b      	ldr	r3, [r3, #4]
 800182c:	f003 030c 	and.w	r3, r3, #12
 8001830:	2b08      	cmp	r3, #8
 8001832:	d061      	beq.n	80018f8 <HAL_RCC_OscConfig+0x4b8>
 8001834:	687b      	ldr	r3, [r7, #4]
 8001836:	69db      	ldr	r3, [r3, #28]
 8001838:	2b02      	cmp	r3, #2
 800183a:	d146      	bne.n	80018ca <HAL_RCC_OscConfig+0x48a>
 800183c:	4b3f      	ldr	r3, [pc, #252]	; (800193c <HAL_RCC_OscConfig+0x4fc>)
 800183e:	2200      	movs	r2, #0
 8001840:	601a      	str	r2, [r3, #0]
 8001842:	f7fe fcdb 	bl	80001fc <HAL_GetTick>
 8001846:	6138      	str	r0, [r7, #16]
 8001848:	e008      	b.n	800185c <HAL_RCC_OscConfig+0x41c>
 800184a:	f7fe fcd7 	bl	80001fc <HAL_GetTick>
 800184e:	4602      	mov	r2, r0
 8001850:	693b      	ldr	r3, [r7, #16]
 8001852:	1ad3      	subs	r3, r2, r3
 8001854:	2b02      	cmp	r3, #2
 8001856:	d901      	bls.n	800185c <HAL_RCC_OscConfig+0x41c>
 8001858:	2303      	movs	r3, #3
 800185a:	e067      	b.n	800192c <HAL_RCC_OscConfig+0x4ec>
 800185c:	4b35      	ldr	r3, [pc, #212]	; (8001934 <HAL_RCC_OscConfig+0x4f4>)
 800185e:	681b      	ldr	r3, [r3, #0]
 8001860:	f003 7300 	and.w	r3, r3, #33554432	; 0x2000000
 8001864:	2b00      	cmp	r3, #0
 8001866:	d1f0      	bne.n	800184a <HAL_RCC_OscConfig+0x40a>
 8001868:	687b      	ldr	r3, [r7, #4]
 800186a:	6a1b      	ldr	r3, [r3, #32]
 800186c:	f5b3 3f80 	cmp.w	r3, #65536	; 0x10000
 8001870:	d108      	bne.n	8001884 <HAL_RCC_OscConfig+0x444>
 8001872:	4b30      	ldr	r3, [pc, #192]	; (8001934 <HAL_RCC_OscConfig+0x4f4>)
 8001874:	685b      	ldr	r3, [r3, #4]
 8001876:	f423 3200 	bic.w	r2, r3, #131072	; 0x20000
 800187a:	687b      	ldr	r3, [r7, #4]
 800187c:	689b      	ldr	r3, [r3, #8]
 800187e:	492d      	ldr	r1, [pc, #180]	; (8001934 <HAL_RCC_OscConfig+0x4f4>)
 8001880:	4313      	orrs	r3, r2
 8001882:	604b      	str	r3, [r1, #4]
 8001884:	4b2b      	ldr	r3, [pc, #172]	; (8001934 <HAL_RCC_OscConfig+0x4f4>)
 8001886:	685b      	ldr	r3, [r3, #4]
 8001888:	f423 1274 	bic.w	r2, r3, #3997696	; 0x3d0000
 800188c:	687b      	ldr	r3, [r7, #4]
 800188e:	6a19      	ldr	r1, [r3, #32]
 8001890:	687b      	ldr	r3, [r7, #4]
 8001892:	6a5b      	ldr	r3, [r3, #36]	; 0x24
 8001894:	430b      	orrs	r3, r1
 8001896:	4927      	ldr	r1, [pc, #156]	; (8001934 <HAL_RCC_OscConfig+0x4f4>)
 8001898:	4313      	orrs	r3, r2
 800189a:	604b      	str	r3, [r1, #4]
 800189c:	4b27      	ldr	r3, [pc, #156]	; (800193c <HAL_RCC_OscConfig+0x4fc>)
 800189e:	2201      	movs	r2, #1
 80018a0:	601a      	str	r2, [r3, #0]
 80018a2:	f7fe fcab 	bl	80001fc <HAL_GetTick>
 80018a6:	6138      	str	r0, [r7, #16]
 80018a8:	e008      	b.n	80018bc <HAL_RCC_OscConfig+0x47c>
 80018aa:	f7fe fca7 	bl	80001fc <HAL_GetTick>
 80018ae:	4602      	mov	r2, r0
 80018b0:	693b      	ldr	r3, [r7, #16]
 80018b2:	1ad3      	subs	r3, r2, r3
 80018b4:	2b02      	cmp	r3, #2
 80018b6:	d901      	bls.n	80018bc <HAL_RCC_OscConfig+0x47c>
 80018b8:	2303      	movs	r3, #3
 80018ba:	e037      	b.n	800192c <HAL_RCC_OscConfig+0x4ec>
 80018bc:	4b1d      	ldr	r3, [pc, #116]	; (8001934 <HAL_RCC_OscConfig+0x4f4>)
 80018be:	681b      	ldr	r3, [r3, #0]
 80018c0:	f003 7300 	and.w	r3, r3, #33554432	; 0x2000000
 80018c4:	2b00      	cmp	r3, #0
 80018c6:	d0f0      	beq.n	80018aa <HAL_RCC_OscConfig+0x46a>
 80018c8:	e02f      	b.n	800192a <HAL_RCC_OscConfig+0x4ea>
 80018ca:	4b1c      	ldr	r3, [pc, #112]	; (800193c <HAL_RCC_OscConfig+0x4fc>)
 80018cc:	2200      	movs	r2, #0
 80018ce:	601a      	str	r2, [r3, #0]
 80018d0:	f7fe fc94 	bl	80001fc <HAL_GetTick>
 80018d4:	6138      	str	r0, [r7, #16]
 80018d6:	e008      	b.n	80018ea <HAL_RCC_OscConfig+0x4aa>
 80018d8:	f7fe fc90 	bl	80001fc <HAL_GetTick>
 80018dc:	4602      	mov	r2, r0
 80018de:	693b      	ldr	r3, [r7, #16]
 80018e0:	1ad3      	subs	r3, r2, r3
 80018e2:	2b02      	cmp	r3, #2
 80018e4:	d901      	bls.n	80018ea <HAL_RCC_OscConfig+0x4aa>
 80018e6:	2303      	movs	r3, #3
 80018e8:	e020      	b.n	800192c <HAL_RCC_OscConfig+0x4ec>
 80018ea:	4b12      	ldr	r3, [pc, #72]	; (8001934 <HAL_RCC_OscConfig+0x4f4>)
 80018ec:	681b      	ldr	r3, [r3, #0]
 80018ee:	f003 7300 	and.w	r3, r3, #33554432	; 0x2000000
 80018f2:	2b00      	cmp	r3, #0
 80018f4:	d1f0      	bne.n	80018d8 <HAL_RCC_OscConfig+0x498>
 80018f6:	e018      	b.n	800192a <HAL_RCC_OscConfig+0x4ea>
 80018f8:	687b      	ldr	r3, [r7, #4]
 80018fa:	69db      	ldr	r3, [r3, #28]
 80018fc:	2b01      	cmp	r3, #1
 80018fe:	d101      	bne.n	8001904 <HAL_RCC_OscConfig+0x4c4>
 8001900:	2301      	movs	r3, #1
 8001902:	e013      	b.n	800192c <HAL_RCC_OscConfig+0x4ec>
 8001904:	4b0b      	ldr	r3, [pc, #44]	; (8001934 <HAL_RCC_OscConfig+0x4f4>)
 8001906:	685b      	ldr	r3, [r3, #4]
 8001908:	60fb      	str	r3, [r7, #12]
 800190a:	68fb      	ldr	r3, [r7, #12]
 800190c:	f403 3280 	and.w	r2, r3, #65536	; 0x10000
 8001910:	687b      	ldr	r3, [r7, #4]
 8001912:	6a1b      	ldr	r3, [r3, #32]
 8001914:	429a      	cmp	r2, r3
 8001916:	d106      	bne.n	8001926 <HAL_RCC_OscConfig+0x4e6>
 8001918:	68fb      	ldr	r3, [r7, #12]
 800191a:	f403 1270 	and.w	r2, r3, #3932160	; 0x3c0000
 800191e:	687b      	ldr	r3, [r7, #4]
 8001920:	6a5b      	ldr	r3, [r3, #36]	; 0x24
 8001922:	429a      	cmp	r2, r3
 8001924:	d001      	beq.n	800192a <HAL_RCC_OscConfig+0x4ea>
 8001926:	2301      	movs	r3, #1
 8001928:	e000      	b.n	800192c <HAL_RCC_OscConfig+0x4ec>
 800192a:	2300      	movs	r3, #0
 800192c:	4618      	mov	r0, r3
 800192e:	3718      	adds	r7, #24
 8001930:	46bd      	mov	sp, r7
 8001932:	bd80      	pop	{r7, pc}
 8001934:	40021000 	.word	0x40021000
 8001938:	40007000 	.word	0x40007000
 800193c:	42420060 	.word	0x42420060

08001940 <HAL_RCC_ClockConfig>:
 8001940:	b580      	push	{r7, lr}
 8001942:	b084      	sub	sp, #16
 8001944:	af00      	add	r7, sp, #0
 8001946:	6078      	str	r0, [r7, #4]
 8001948:	6039      	str	r1, [r7, #0]
 800194a:	687b      	ldr	r3, [r7, #4]
 800194c:	2b00      	cmp	r3, #0
 800194e:	d101      	bne.n	8001954 <HAL_RCC_ClockConfig+0x14>
 8001950:	2301      	movs	r3, #1
 8001952:	e0d0      	b.n	8001af6 <HAL_RCC_ClockConfig+0x1b6>
 8001954:	4b6a      	ldr	r3, [pc, #424]	; (8001b00 <HAL_RCC_ClockConfig+0x1c0>)
 8001956:	681b      	ldr	r3, [r3, #0]
 8001958:	f003 0307 	and.w	r3, r3, #7
 800195c:	683a      	ldr	r2, [r7, #0]
 800195e:	429a      	cmp	r2, r3
 8001960:	d910      	bls.n	8001984 <HAL_RCC_ClockConfig+0x44>
 8001962:	4b67      	ldr	r3, [pc, #412]	; (8001b00 <HAL_RCC_ClockConfig+0x1c0>)
 8001964:	681b      	ldr	r3, [r3, #0]
 8001966:	f023 0207 	bic.w	r2, r3, #7
 800196a:	4965      	ldr	r1, [pc, #404]	; (8001b00 <HAL_RCC_ClockConfig+0x1c0>)
 800196c:	683b      	ldr	r3, [r7, #0]
 800196e:	4313      	orrs	r3, r2
 8001970:	600b      	str	r3, [r1, #0]
 8001972:	4b63      	ldr	r3, [pc, #396]	; (8001b00 <HAL_RCC_ClockConfig+0x1c0>)
 8001974:	681b      	ldr	r3, [r3, #0]
 8001976:	f003 0307 	and.w	r3, r3, #7
 800197a:	683a      	ldr	r2, [r7, #0]
 800197c:	429a      	cmp	r2, r3
 800197e:	d001      	beq.n	8001984 <HAL_RCC_ClockConfig+0x44>
 8001980:	2301      	movs	r3, #1
 8001982:	e0b8      	b.n	8001af6 <HAL_RCC_ClockConfig+0x1b6>
 8001984:	687b      	ldr	r3, [r7, #4]
 8001986:	681b      	ldr	r3, [r3, #0]
 8001988:	f003 0302 	and.w	r3, r3, #2
 800198c:	2b00      	cmp	r3, #0
 800198e:	d020      	beq.n	80019d2 <HAL_RCC_ClockConfig+0x92>
 8001990:	687b      	ldr	r3, [r7, #4]
 8001992:	681b      	ldr	r3, [r3, #0]
 8001994:	f003 0304 	and.w	r3, r3, #4
 8001998:	2b00      	cmp	r3, #0
 800199a:	d005      	beq.n	80019a8 <HAL_RCC_ClockConfig+0x68>
 800199c:	4b59      	ldr	r3, [pc, #356]	; (8001b04 <HAL_RCC_ClockConfig+0x1c4>)
 800199e:	685b      	ldr	r3, [r3, #4]
 80019a0:	4a58      	ldr	r2, [pc, #352]	; (8001b04 <HAL_RCC_ClockConfig+0x1c4>)
 80019a2:	f443 63e0 	orr.w	r3, r3, #1792	; 0x700
 80019a6:	6053      	str	r3, [r2, #4]
 80019a8:	687b      	ldr	r3, [r7, #4]
 80019aa:	681b      	ldr	r3, [r3, #0]
 80019ac:	f003 0308 	and.w	r3, r3, #8
 80019b0:	2b00      	cmp	r3, #0
 80019b2:	d005      	beq.n	80019c0 <HAL_RCC_ClockConfig+0x80>
 80019b4:	4b53      	ldr	r3, [pc, #332]	; (8001b04 <HAL_RCC_ClockConfig+0x1c4>)
 80019b6:	685b      	ldr	r3, [r3, #4]
 80019b8:	4a52      	ldr	r2, [pc, #328]	; (8001b04 <HAL_RCC_ClockConfig+0x1c4>)
 80019ba:	f443 5360 	orr.w	r3, r3, #14336	; 0x3800
 80019be:	6053      	str	r3, [r2, #4]
 80019c0:	4b50      	ldr	r3, [pc, #320]	; (8001b04 <HAL_RCC_ClockConfig+0x1c4>)
 80019c2:	685b      	ldr	r3, [r3, #4]
 80019c4:	f023 02f0 	bic.w	r2, r3, #240	; 0xf0
 80019c8:	687b      	ldr	r3, [r7, #4]
 80019ca:	689b      	ldr	r3, [r3, #8]
 80019cc:	494d      	ldr	r1, [pc, #308]	; (8001b04 <HAL_RCC_ClockConfig+0x1c4>)
 80019ce:	4313      	orrs	r3, r2
 80019d0:	604b      	str	r3, [r1, #4]
 80019d2:	687b      	ldr	r3, [r7, #4]
 80019d4:	681b      	ldr	r3, [r3, #0]
 80019d6:	f003 0301 	and.w	r3, r3, #1
 80019da:	2b00      	cmp	r3, #0
 80019dc:	d040      	beq.n	8001a60 <HAL_RCC_ClockConfig+0x120>
 80019de:	687b      	ldr	r3, [r7, #4]
 80019e0:	685b      	ldr	r3, [r3, #4]
 80019e2:	2b01      	cmp	r3, #1
 80019e4:	d107      	bne.n	80019f6 <HAL_RCC_ClockConfig+0xb6>
 80019e6:	4b47      	ldr	r3, [pc, #284]	; (8001b04 <HAL_RCC_ClockConfig+0x1c4>)
 80019e8:	681b      	ldr	r3, [r3, #0]
 80019ea:	f403 3300 	and.w	r3, r3, #131072	; 0x20000
 80019ee:	2b00      	cmp	r3, #0
 80019f0:	d115      	bne.n	8001a1e <HAL_RCC_ClockConfig+0xde>
 80019f2:	2301      	movs	r3, #1
 80019f4:	e07f      	b.n	8001af6 <HAL_RCC_ClockConfig+0x1b6>
 80019f6:	687b      	ldr	r3, [r7, #4]
 80019f8:	685b      	ldr	r3, [r3, #4]
 80019fa:	2b02      	cmp	r3, #2
 80019fc:	d107      	bne.n	8001a0e <HAL_RCC_ClockConfig+0xce>
 80019fe:	4b41      	ldr	r3, [pc, #260]	; (8001b04 <HAL_RCC_ClockConfig+0x1c4>)
 8001a00:	681b      	ldr	r3, [r3, #0]
 8001a02:	f003 7300 	and.w	r3, r3, #33554432	; 0x2000000
 8001a06:	2b00      	cmp	r3, #0
 8001a08:	d109      	bne.n	8001a1e <HAL_RCC_ClockConfig+0xde>
 8001a0a:	2301      	movs	r3, #1
 8001a0c:	e073      	b.n	8001af6 <HAL_RCC_ClockConfig+0x1b6>
 8001a0e:	4b3d      	ldr	r3, [pc, #244]	; (8001b04 <HAL_RCC_ClockConfig+0x1c4>)
 8001a10:	681b      	ldr	r3, [r3, #0]
 8001a12:	f003 0302 	and.w	r3, r3, #2
 8001a16:	2b00      	cmp	r3, #0
 8001a18:	d101      	bne.n	8001a1e <HAL_RCC_ClockConfig+0xde>
 8001a1a:	2301      	movs	r3, #1
 8001a1c:	e06b      	b.n	8001af6 <HAL_RCC_ClockConfig+0x1b6>
 8001a1e:	4b39      	ldr	r3, [pc, #228]	; (8001b04 <HAL_RCC_ClockConfig+0x1c4>)
 8001a20:	685b      	ldr	r3, [r3, #4]
 8001a22:	f023 0203 	bic.w	r2, r3, #3
 8001a26:	687b      	ldr	r3, [r7, #4]
 8001a28:	685b      	ldr	r3, [r3, #4]
 8001a2a:	4936      	ldr	r1, [pc, #216]	; (8001b04 <HAL_RCC_ClockConfig+0x1c4>)
 8001a2c:	4313      	orrs	r3, r2
 8001a2e:	604b      	str	r3, [r1, #4]
 8001a30:	f7fe fbe4 	bl	80001fc <HAL_GetTick>
 8001a34:	60f8      	str	r0, [r7, #12]
 8001a36:	e00a      	b.n	8001a4e <HAL_RCC_ClockConfig+0x10e>
 8001a38:	f7fe fbe0 	bl	80001fc <HAL_GetTick>
 8001a3c:	4602      	mov	r2, r0
 8001a3e:	68fb      	ldr	r3, [r7, #12]
 8001a40:	1ad3      	subs	r3, r2, r3
 8001a42:	f241 3288 	movw	r2, #5000	; 0x1388
 8001a46:	4293      	cmp	r3, r2
 8001a48:	d901      	bls.n	8001a4e <HAL_RCC_ClockConfig+0x10e>
 8001a4a:	2303      	movs	r3, #3
 8001a4c:	e053      	b.n	8001af6 <HAL_RCC_ClockConfig+0x1b6>
 8001a4e:	4b2d      	ldr	r3, [pc, #180]	; (8001b04 <HAL_RCC_ClockConfig+0x1c4>)
 8001a50:	685b      	ldr	r3, [r3, #4]
 8001a52:	f003 020c 	and.w	r2, r3, #12
 8001a56:	687b      	ldr	r3, [r7, #4]
 8001a58:	685b      	ldr	r3, [r3, #4]
 8001a5a:	009b      	lsls	r3, r3, #2
 8001a5c:	429a      	cmp	r2, r3
 8001a5e:	d1eb      	bne.n	8001a38 <HAL_RCC_ClockConfig+0xf8>
 8001a60:	4b27      	ldr	r3, [pc, #156]	; (8001b00 <HAL_RCC_ClockConfig+0x1c0>)
 8001a62:	681b      	ldr	r3, [r3, #0]
 8001a64:	f003 0307 	and.w	r3, r3, #7
 8001a68:	683a      	ldr	r2, [r7, #0]
 8001a6a:	429a      	cmp	r2, r3
 8001a6c:	d210      	bcs.n	8001a90 <HAL_RCC_ClockConfig+0x150>
 8001a6e:	4b24      	ldr	r3, [pc, #144]	; (8001b00 <HAL_RCC_ClockConfig+0x1c0>)
 8001a70:	681b      	ldr	r3, [r3, #0]
 8001a72:	f023 0207 	bic.w	r2, r3, #7
 8001a76:	4922      	ldr	r1, [pc, #136]	; (8001b00 <HAL_RCC_ClockConfig+0x1c0>)
 8001a78:	683b      	ldr	r3, [r7, #0]
 8001a7a:	4313      	orrs	r3, r2
 8001a7c:	600b      	str	r3, [r1, #0]
 8001a7e:	4b20      	ldr	r3, [pc, #128]	; (8001b00 <HAL_RCC_ClockConfig+0x1c0>)
 8001a80:	681b      	ldr	r3, [r3, #0]
 8001a82:	f003 0307 	and.w	r3, r3, #7
 8001a86:	683a      	ldr	r2, [r7, #0]
 8001a88:	429a      	cmp	r2, r3
 8001a8a:	d001      	beq.n	8001a90 <HAL_RCC_ClockConfig+0x150>
 8001a8c:	2301      	movs	r3, #1
 8001a8e:	e032      	b.n	8001af6 <HAL_RCC_ClockConfig+0x1b6>
 8001a90:	687b      	ldr	r3, [r7, #4]
 8001a92:	681b      	ldr	r3, [r3, #0]
 8001a94:	f003 0304 	and.w	r3, r3, #4
 8001a98:	2b00      	cmp	r3, #0
 8001a9a:	d008      	beq.n	8001aae <HAL_RCC_ClockConfig+0x16e>
 8001a9c:	4b19      	ldr	r3, [pc, #100]	; (8001b04 <HAL_RCC_ClockConfig+0x1c4>)
 8001a9e:	685b      	ldr	r3, [r3, #4]
 8001aa0:	f423 62e0 	bic.w	r2, r3, #1792	; 0x700
 8001aa4:	687b      	ldr	r3, [r7, #4]
 8001aa6:	68db      	ldr	r3, [r3, #12]
 8001aa8:	4916      	ldr	r1, [pc, #88]	; (8001b04 <HAL_RCC_ClockConfig+0x1c4>)
 8001aaa:	4313      	orrs	r3, r2
 8001aac:	604b      	str	r3, [r1, #4]
 8001aae:	687b      	ldr	r3, [r7, #4]
 8001ab0:	681b      	ldr	r3, [r3, #0]
 8001ab2:	f003 0308 	and.w	r3, r3, #8
 8001ab6:	2b00      	cmp	r3, #0
 8001ab8:	d009      	beq.n	8001ace <HAL_RCC_ClockConfig+0x18e>
 8001aba:	4b12      	ldr	r3, [pc, #72]	; (8001b04 <HAL_RCC_ClockConfig+0x1c4>)
 8001abc:	685b      	ldr	r3, [r3, #4]
 8001abe:	f423 5260 	bic.w	r2, r3, #14336	; 0x3800
 8001ac2:	687b      	ldr	r3, [r7, #4]
 8001ac4:	691b      	ldr	r3, [r3, #16]
 8001ac6:	00db      	lsls	r3, r3, #3
 8001ac8:	490e      	ldr	r1, [pc, #56]	; (8001b04 <HAL_RCC_ClockConfig+0x1c4>)
 8001aca:	4313      	orrs	r3, r2
 8001acc:	604b      	str	r3, [r1, #4]
 8001ace:	f000 f821 	bl	8001b14 <HAL_RCC_GetSysClockFreq>
 8001ad2:	4601      	mov	r1, r0
 8001ad4:	4b0b      	ldr	r3, [pc, #44]	; (8001b04 <HAL_RCC_ClockConfig+0x1c4>)
 8001ad6:	685b      	ldr	r3, [r3, #4]
 8001ad8:	091b      	lsrs	r3, r3, #4
 8001ada:	f003 030f 	and.w	r3, r3, #15
 8001ade:	4a0a      	ldr	r2, [pc, #40]	; (8001b08 <HAL_RCC_ClockConfig+0x1c8>)
 8001ae0:	5cd3      	ldrb	r3, [r2, r3]
 8001ae2:	fa21 f303 	lsr.w	r3, r1, r3
 8001ae6:	4a09      	ldr	r2, [pc, #36]	; (8001b0c <HAL_RCC_ClockConfig+0x1cc>)
 8001ae8:	6013      	str	r3, [r2, #0]
 8001aea:	4b09      	ldr	r3, [pc, #36]	; (8001b10 <HAL_RCC_ClockConfig+0x1d0>)
 8001aec:	681b      	ldr	r3, [r3, #0]
 8001aee:	4618      	mov	r0, r3
 8001af0:	f7fe fb42 	bl	8000178 <HAL_InitTick>
 8001af4:	2300      	movs	r3, #0
 8001af6:	4618      	mov	r0, r3
 8001af8:	3710      	adds	r7, #16
 8001afa:	46bd      	mov	sp, r7
 8001afc:	bd80      	pop	{r7, pc}
 8001afe:	bf00      	nop
 8001b00:	40022000 	.word	0x40022000
 8001b04:	40021000 	.word	0x40021000
 8001b08:	08003d84 	.word	0x08003d84
 8001b0c:	2000000c 	.word	0x2000000c
 8001b10:	20000000 	.word	0x20000000

08001b14 <HAL_RCC_GetSysClockFreq>:
 8001b14:	b490      	push	{r4, r7}
 8001b16:	b08a      	sub	sp, #40	; 0x28
 8001b18:	af00      	add	r7, sp, #0
 8001b1a:	4b2a      	ldr	r3, [pc, #168]	; (8001bc4 <HAL_RCC_GetSysClockFreq+0xb0>)
 8001b1c:	1d3c      	adds	r4, r7, #4
 8001b1e:	cb0f      	ldmia	r3, {r0, r1, r2, r3}
 8001b20:	e884 000f 	stmia.w	r4, {r0, r1, r2, r3}
 8001b24:	4b28      	ldr	r3, [pc, #160]	; (8001bc8 <HAL_RCC_GetSysClockFreq+0xb4>)
 8001b26:	881b      	ldrh	r3, [r3, #0]
 8001b28:	803b      	strh	r3, [r7, #0]
 8001b2a:	2300      	movs	r3, #0
 8001b2c:	61fb      	str	r3, [r7, #28]
 8001b2e:	2300      	movs	r3, #0
 8001b30:	61bb      	str	r3, [r7, #24]
 8001b32:	2300      	movs	r3, #0
 8001b34:	627b      	str	r3, [r7, #36]	; 0x24
 8001b36:	2300      	movs	r3, #0
 8001b38:	617b      	str	r3, [r7, #20]
 8001b3a:	2300      	movs	r3, #0
 8001b3c:	623b      	str	r3, [r7, #32]
 8001b3e:	4b23      	ldr	r3, [pc, #140]	; (8001bcc <HAL_RCC_GetSysClockFreq+0xb8>)
 8001b40:	685b      	ldr	r3, [r3, #4]
 8001b42:	61fb      	str	r3, [r7, #28]
 8001b44:	69fb      	ldr	r3, [r7, #28]
 8001b46:	f003 030c 	and.w	r3, r3, #12
 8001b4a:	2b04      	cmp	r3, #4
 8001b4c:	d002      	beq.n	8001b54 <HAL_RCC_GetSysClockFreq+0x40>
 8001b4e:	2b08      	cmp	r3, #8
 8001b50:	d003      	beq.n	8001b5a <HAL_RCC_GetSysClockFreq+0x46>
 8001b52:	e02d      	b.n	8001bb0 <HAL_RCC_GetSysClockFreq+0x9c>
 8001b54:	4b1e      	ldr	r3, [pc, #120]	; (8001bd0 <HAL_RCC_GetSysClockFreq+0xbc>)
 8001b56:	623b      	str	r3, [r7, #32]
 8001b58:	e02d      	b.n	8001bb6 <HAL_RCC_GetSysClockFreq+0xa2>
 8001b5a:	69fb      	ldr	r3, [r7, #28]
 8001b5c:	0c9b      	lsrs	r3, r3, #18
 8001b5e:	f003 030f 	and.w	r3, r3, #15
 8001b62:	f107 0228 	add.w	r2, r7, #40	; 0x28
 8001b66:	4413      	add	r3, r2
 8001b68:	f813 3c24 	ldrb.w	r3, [r3, #-36]
 8001b6c:	617b      	str	r3, [r7, #20]
 8001b6e:	69fb      	ldr	r3, [r7, #28]
 8001b70:	f403 3380 	and.w	r3, r3, #65536	; 0x10000
 8001b74:	2b00      	cmp	r3, #0
 8001b76:	d013      	beq.n	8001ba0 <HAL_RCC_GetSysClockFreq+0x8c>
 8001b78:	4b14      	ldr	r3, [pc, #80]	; (8001bcc <HAL_RCC_GetSysClockFreq+0xb8>)
 8001b7a:	685b      	ldr	r3, [r3, #4]
 8001b7c:	0c5b      	lsrs	r3, r3, #17
 8001b7e:	f003 0301 	and.w	r3, r3, #1
 8001b82:	f107 0228 	add.w	r2, r7, #40	; 0x28
 8001b86:	4413      	add	r3, r2
 8001b88:	f813 3c28 	ldrb.w	r3, [r3, #-40]
 8001b8c:	61bb      	str	r3, [r7, #24]
 8001b8e:	697b      	ldr	r3, [r7, #20]
 8001b90:	4a0f      	ldr	r2, [pc, #60]	; (8001bd0 <HAL_RCC_GetSysClockFreq+0xbc>)
 8001b92:	fb02 f203 	mul.w	r2, r2, r3
 8001b96:	69bb      	ldr	r3, [r7, #24]
 8001b98:	fbb2 f3f3 	udiv	r3, r2, r3
 8001b9c:	627b      	str	r3, [r7, #36]	; 0x24
 8001b9e:	e004      	b.n	8001baa <HAL_RCC_GetSysClockFreq+0x96>
 8001ba0:	697b      	ldr	r3, [r7, #20]
 8001ba2:	4a0c      	ldr	r2, [pc, #48]	; (8001bd4 <HAL_RCC_GetSysClockFreq+0xc0>)
 8001ba4:	fb02 f303 	mul.w	r3, r2, r3
 8001ba8:	627b      	str	r3, [r7, #36]	; 0x24
 8001baa:	6a7b      	ldr	r3, [r7, #36]	; 0x24
 8001bac:	623b      	str	r3, [r7, #32]
 8001bae:	e002      	b.n	8001bb6 <HAL_RCC_GetSysClockFreq+0xa2>
 8001bb0:	4b07      	ldr	r3, [pc, #28]	; (8001bd0 <HAL_RCC_GetSysClockFreq+0xbc>)
 8001bb2:	623b      	str	r3, [r7, #32]
 8001bb4:	bf00      	nop
 8001bb6:	6a3b      	ldr	r3, [r7, #32]
 8001bb8:	4618      	mov	r0, r3
 8001bba:	3728      	adds	r7, #40	; 0x28
 8001bbc:	46bd      	mov	sp, r7
 8001bbe:	bc90      	pop	{r4, r7}
 8001bc0:	4770      	bx	lr
 8001bc2:	bf00      	nop
 8001bc4:	08003d5c 	.word	0x08003d5c
 8001bc8:	08003d6c 	.word	0x08003d6c
 8001bcc:	40021000 	.word	0x40021000
 8001bd0:	007a1200 	.word	0x007a1200
 8001bd4:	003d0900 	.word	0x003d0900

08001bd8 <HAL_RCC_GetHCLKFreq>:
 8001bd8:	b480      	push	{r7}
 8001bda:	af00      	add	r7, sp, #0
 8001bdc:	4b02      	ldr	r3, [pc, #8]	; (8001be8 <HAL_RCC_GetHCLKFreq+0x10>)
 8001bde:	681b      	ldr	r3, [r3, #0]
 8001be0:	4618      	mov	r0, r3
 8001be2:	46bd      	mov	sp, r7
 8001be4:	bc80      	pop	{r7}
 8001be6:	4770      	bx	lr
 8001be8:	2000000c 	.word	0x2000000c

08001bec <HAL_RCC_GetPCLK2Freq>:
 8001bec:	b580      	push	{r7, lr}
 8001bee:	af00      	add	r7, sp, #0
 8001bf0:	f7ff fff2 	bl	8001bd8 <HAL_RCC_GetHCLKFreq>
 8001bf4:	4601      	mov	r1, r0
 8001bf6:	4b05      	ldr	r3, [pc, #20]	; (8001c0c <HAL_RCC_GetPCLK2Freq+0x20>)
 8001bf8:	685b      	ldr	r3, [r3, #4]
 8001bfa:	0adb      	lsrs	r3, r3, #11
 8001bfc:	f003 0307 	and.w	r3, r3, #7
 8001c00:	4a03      	ldr	r2, [pc, #12]	; (8001c10 <HAL_RCC_GetPCLK2Freq+0x24>)
 8001c02:	5cd3      	ldrb	r3, [r2, r3]
 8001c04:	fa21 f303 	lsr.w	r3, r1, r3
 8001c08:	4618      	mov	r0, r3
 8001c0a:	bd80      	pop	{r7, pc}
 8001c0c:	40021000 	.word	0x40021000
 8001c10:	08003d94 	.word	0x08003d94

08001c14 <RCC_Delay>:
 8001c14:	b480      	push	{r7}
 8001c16:	b085      	sub	sp, #20
 8001c18:	af00      	add	r7, sp, #0
 8001c1a:	6078      	str	r0, [r7, #4]
 8001c1c:	4b0a      	ldr	r3, [pc, #40]	; (8001c48 <RCC_Delay+0x34>)
 8001c1e:	681b      	ldr	r3, [r3, #0]
 8001c20:	4a0a      	ldr	r2, [pc, #40]	; (8001c4c <RCC_Delay+0x38>)
 8001c22:	fba2 2303 	umull	r2, r3, r2, r3
 8001c26:	0a5b      	lsrs	r3, r3, #9
 8001c28:	687a      	ldr	r2, [r7, #4]
 8001c2a:	fb02 f303 	mul.w	r3, r2, r3
 8001c2e:	60fb      	str	r3, [r7, #12]
 8001c30:	bf00      	nop
 8001c32:	68fb      	ldr	r3, [r7, #12]
 8001c34:	1e5a      	subs	r2, r3, #1
 8001c36:	60fa      	str	r2, [r7, #12]
 8001c38:	2b00      	cmp	r3, #0
 8001c3a:	d1f9      	bne.n	8001c30 <RCC_Delay+0x1c>
 8001c3c:	bf00      	nop
 8001c3e:	3714      	adds	r7, #20
 8001c40:	46bd      	mov	sp, r7
 8001c42:	bc80      	pop	{r7}
 8001c44:	4770      	bx	lr
 8001c46:	bf00      	nop
 8001c48:	2000000c 	.word	0x2000000c
 8001c4c:	10624dd3 	.word	0x10624dd3

08001c50 <HAL_RCCEx_PeriphCLKConfig>:
 8001c50:	b580      	push	{r7, lr}
 8001c52:	b086      	sub	sp, #24
 8001c54:	af00      	add	r7, sp, #0
 8001c56:	6078      	str	r0, [r7, #4]
 8001c58:	2300      	movs	r3, #0
 8001c5a:	613b      	str	r3, [r7, #16]
 8001c5c:	2300      	movs	r3, #0
 8001c5e:	60fb      	str	r3, [r7, #12]
 8001c60:	687b      	ldr	r3, [r7, #4]
 8001c62:	681b      	ldr	r3, [r3, #0]
 8001c64:	f003 0301 	and.w	r3, r3, #1
 8001c68:	2b00      	cmp	r3, #0
 8001c6a:	d07d      	beq.n	8001d68 <HAL_RCCEx_PeriphCLKConfig+0x118>
 8001c6c:	2300      	movs	r3, #0
 8001c6e:	75fb      	strb	r3, [r7, #23]
 8001c70:	4b4f      	ldr	r3, [pc, #316]	; (8001db0 <HAL_RCCEx_PeriphCLKConfig+0x160>)
 8001c72:	69db      	ldr	r3, [r3, #28]
 8001c74:	f003 5380 	and.w	r3, r3, #268435456	; 0x10000000
 8001c78:	2b00      	cmp	r3, #0
 8001c7a:	d10d      	bne.n	8001c98 <HAL_RCCEx_PeriphCLKConfig+0x48>
 8001c7c:	4b4c      	ldr	r3, [pc, #304]	; (8001db0 <HAL_RCCEx_PeriphCLKConfig+0x160>)
 8001c7e:	69db      	ldr	r3, [r3, #28]
 8001c80:	4a4b      	ldr	r2, [pc, #300]	; (8001db0 <HAL_RCCEx_PeriphCLKConfig+0x160>)
 8001c82:	f043 5380 	orr.w	r3, r3, #268435456	; 0x10000000
 8001c86:	61d3      	str	r3, [r2, #28]
 8001c88:	4b49      	ldr	r3, [pc, #292]	; (8001db0 <HAL_RCCEx_PeriphCLKConfig+0x160>)
 8001c8a:	69db      	ldr	r3, [r3, #28]
 8001c8c:	f003 5380 	and.w	r3, r3, #268435456	; 0x10000000
 8001c90:	60bb      	str	r3, [r7, #8]
 8001c92:	68bb      	ldr	r3, [r7, #8]
 8001c94:	2301      	movs	r3, #1
 8001c96:	75fb      	strb	r3, [r7, #23]
 8001c98:	4b46      	ldr	r3, [pc, #280]	; (8001db4 <HAL_RCCEx_PeriphCLKConfig+0x164>)
 8001c9a:	681b      	ldr	r3, [r3, #0]
 8001c9c:	f403 7380 	and.w	r3, r3, #256	; 0x100
 8001ca0:	2b00      	cmp	r3, #0
 8001ca2:	d118      	bne.n	8001cd6 <HAL_RCCEx_PeriphCLKConfig+0x86>
 8001ca4:	4b43      	ldr	r3, [pc, #268]	; (8001db4 <HAL_RCCEx_PeriphCLKConfig+0x164>)
 8001ca6:	681b      	ldr	r3, [r3, #0]
 8001ca8:	4a42      	ldr	r2, [pc, #264]	; (8001db4 <HAL_RCCEx_PeriphCLKConfig+0x164>)
 8001caa:	f443 7380 	orr.w	r3, r3, #256	; 0x100
 8001cae:	6013      	str	r3, [r2, #0]
 8001cb0:	f7fe faa4 	bl	80001fc <HAL_GetTick>
 8001cb4:	6138      	str	r0, [r7, #16]
 8001cb6:	e008      	b.n	8001cca <HAL_RCCEx_PeriphCLKConfig+0x7a>
 8001cb8:	f7fe faa0 	bl	80001fc <HAL_GetTick>
 8001cbc:	4602      	mov	r2, r0
 8001cbe:	693b      	ldr	r3, [r7, #16]
 8001cc0:	1ad3      	subs	r3, r2, r3
 8001cc2:	2b64      	cmp	r3, #100	; 0x64
 8001cc4:	d901      	bls.n	8001cca <HAL_RCCEx_PeriphCLKConfig+0x7a>
 8001cc6:	2303      	movs	r3, #3
 8001cc8:	e06d      	b.n	8001da6 <HAL_RCCEx_PeriphCLKConfig+0x156>
 8001cca:	4b3a      	ldr	r3, [pc, #232]	; (8001db4 <HAL_RCCEx_PeriphCLKConfig+0x164>)
 8001ccc:	681b      	ldr	r3, [r3, #0]
 8001cce:	f403 7380 	and.w	r3, r3, #256	; 0x100
 8001cd2:	2b00      	cmp	r3, #0
 8001cd4:	d0f0      	beq.n	8001cb8 <HAL_RCCEx_PeriphCLKConfig+0x68>
 8001cd6:	4b36      	ldr	r3, [pc, #216]	; (8001db0 <HAL_RCCEx_PeriphCLKConfig+0x160>)
 8001cd8:	6a1b      	ldr	r3, [r3, #32]
 8001cda:	f403 7340 	and.w	r3, r3, #768	; 0x300
 8001cde:	60fb      	str	r3, [r7, #12]
 8001ce0:	68fb      	ldr	r3, [r7, #12]
 8001ce2:	2b00      	cmp	r3, #0
 8001ce4:	d02e      	beq.n	8001d44 <HAL_RCCEx_PeriphCLKConfig+0xf4>
 8001ce6:	687b      	ldr	r3, [r7, #4]
 8001ce8:	685b      	ldr	r3, [r3, #4]
 8001cea:	f403 7340 	and.w	r3, r3, #768	; 0x300
 8001cee:	68fa      	ldr	r2, [r7, #12]
 8001cf0:	429a      	cmp	r2, r3
 8001cf2:	d027      	beq.n	8001d44 <HAL_RCCEx_PeriphCLKConfig+0xf4>
 8001cf4:	4b2e      	ldr	r3, [pc, #184]	; (8001db0 <HAL_RCCEx_PeriphCLKConfig+0x160>)
 8001cf6:	6a1b      	ldr	r3, [r3, #32]
 8001cf8:	f423 7340 	bic.w	r3, r3, #768	; 0x300
 8001cfc:	60fb      	str	r3, [r7, #12]
 8001cfe:	4b2e      	ldr	r3, [pc, #184]	; (8001db8 <HAL_RCCEx_PeriphCLKConfig+0x168>)
 8001d00:	2201      	movs	r2, #1
 8001d02:	601a      	str	r2, [r3, #0]
 8001d04:	4b2c      	ldr	r3, [pc, #176]	; (8001db8 <HAL_RCCEx_PeriphCLKConfig+0x168>)
 8001d06:	2200      	movs	r2, #0
 8001d08:	601a      	str	r2, [r3, #0]
 8001d0a:	4a29      	ldr	r2, [pc, #164]	; (8001db0 <HAL_RCCEx_PeriphCLKConfig+0x160>)
 8001d0c:	68fb      	ldr	r3, [r7, #12]
 8001d0e:	6213      	str	r3, [r2, #32]
 8001d10:	68fb      	ldr	r3, [r7, #12]
 8001d12:	f003 0301 	and.w	r3, r3, #1
 8001d16:	2b00      	cmp	r3, #0
 8001d18:	d014      	beq.n	8001d44 <HAL_RCCEx_PeriphCLKConfig+0xf4>
 8001d1a:	f7fe fa6f 	bl	80001fc <HAL_GetTick>
 8001d1e:	6138      	str	r0, [r7, #16]
 8001d20:	e00a      	b.n	8001d38 <HAL_RCCEx_PeriphCLKConfig+0xe8>
 8001d22:	f7fe fa6b 	bl	80001fc <HAL_GetTick>
 8001d26:	4602      	mov	r2, r0
 8001d28:	693b      	ldr	r3, [r7, #16]
 8001d2a:	1ad3      	subs	r3, r2, r3
 8001d2c:	f241 3288 	movw	r2, #5000	; 0x1388
 8001d30:	4293      	cmp	r3, r2
 8001d32:	d901      	bls.n	8001d38 <HAL_RCCEx_PeriphCLKConfig+0xe8>
 8001d34:	2303      	movs	r3, #3
 8001d36:	e036      	b.n	8001da6 <HAL_RCCEx_PeriphCLKConfig+0x156>
 8001d38:	4b1d      	ldr	r3, [pc, #116]	; (8001db0 <HAL_RCCEx_PeriphCLKConfig+0x160>)
 8001d3a:	6a1b      	ldr	r3, [r3, #32]
 8001d3c:	f003 0302 	and.w	r3, r3, #2
 8001d40:	2b00      	cmp	r3, #0
 8001d42:	d0ee      	beq.n	8001d22 <HAL_RCCEx_PeriphCLKConfig+0xd2>
 8001d44:	4b1a      	ldr	r3, [pc, #104]	; (8001db0 <HAL_RCCEx_PeriphCLKConfig+0x160>)
 8001d46:	6a1b      	ldr	r3, [r3, #32]
 8001d48:	f423 7240 	bic.w	r2, r3, #768	; 0x300
 8001d4c:	687b      	ldr	r3, [r7, #4]
 8001d4e:	685b      	ldr	r3, [r3, #4]
 8001d50:	4917      	ldr	r1, [pc, #92]	; (8001db0 <HAL_RCCEx_PeriphCLKConfig+0x160>)
 8001d52:	4313      	orrs	r3, r2
 8001d54:	620b      	str	r3, [r1, #32]
 8001d56:	7dfb      	ldrb	r3, [r7, #23]
 8001d58:	2b01      	cmp	r3, #1
 8001d5a:	d105      	bne.n	8001d68 <HAL_RCCEx_PeriphCLKConfig+0x118>
 8001d5c:	4b14      	ldr	r3, [pc, #80]	; (8001db0 <HAL_RCCEx_PeriphCLKConfig+0x160>)
 8001d5e:	69db      	ldr	r3, [r3, #28]
 8001d60:	4a13      	ldr	r2, [pc, #76]	; (8001db0 <HAL_RCCEx_PeriphCLKConfig+0x160>)
 8001d62:	f023 5380 	bic.w	r3, r3, #268435456	; 0x10000000
 8001d66:	61d3      	str	r3, [r2, #28]
 8001d68:	687b      	ldr	r3, [r7, #4]
 8001d6a:	681b      	ldr	r3, [r3, #0]
 8001d6c:	f003 0302 	and.w	r3, r3, #2
 8001d70:	2b00      	cmp	r3, #0
 8001d72:	d008      	beq.n	8001d86 <HAL_RCCEx_PeriphCLKConfig+0x136>
 8001d74:	4b0e      	ldr	r3, [pc, #56]	; (8001db0 <HAL_RCCEx_PeriphCLKConfig+0x160>)
 8001d76:	685b      	ldr	r3, [r3, #4]
 8001d78:	f423 4240 	bic.w	r2, r3, #49152	; 0xc000
 8001d7c:	687b      	ldr	r3, [r7, #4]
 8001d7e:	689b      	ldr	r3, [r3, #8]
 8001d80:	490b      	ldr	r1, [pc, #44]	; (8001db0 <HAL_RCCEx_PeriphCLKConfig+0x160>)
 8001d82:	4313      	orrs	r3, r2
 8001d84:	604b      	str	r3, [r1, #4]
 8001d86:	687b      	ldr	r3, [r7, #4]
 8001d88:	681b      	ldr	r3, [r3, #0]
 8001d8a:	f003 0310 	and.w	r3, r3, #16
 8001d8e:	2b00      	cmp	r3, #0
 8001d90:	d008      	beq.n	8001da4 <HAL_RCCEx_PeriphCLKConfig+0x154>
 8001d92:	4b07      	ldr	r3, [pc, #28]	; (8001db0 <HAL_RCCEx_PeriphCLKConfig+0x160>)
 8001d94:	685b      	ldr	r3, [r3, #4]
 8001d96:	f423 0280 	bic.w	r2, r3, #4194304	; 0x400000
 8001d9a:	687b      	ldr	r3, [r7, #4]
 8001d9c:	68db      	ldr	r3, [r3, #12]
 8001d9e:	4904      	ldr	r1, [pc, #16]	; (8001db0 <HAL_RCCEx_PeriphCLKConfig+0x160>)
 8001da0:	4313      	orrs	r3, r2
 8001da2:	604b      	str	r3, [r1, #4]
 8001da4:	2300      	movs	r3, #0
 8001da6:	4618      	mov	r0, r3
 8001da8:	3718      	adds	r7, #24
 8001daa:	46bd      	mov	sp, r7
 8001dac:	bd80      	pop	{r7, pc}
 8001dae:	bf00      	nop
 8001db0:	40021000 	.word	0x40021000
 8001db4:	40007000 	.word	0x40007000
 8001db8:	42420440 	.word	0x42420440

08001dbc <HAL_RCCEx_GetPeriphCLKFreq>:
 8001dbc:	b590      	push	{r4, r7, lr}
 8001dbe:	b08d      	sub	sp, #52	; 0x34
 8001dc0:	af00      	add	r7, sp, #0
 8001dc2:	6078      	str	r0, [r7, #4]
 8001dc4:	4b55      	ldr	r3, [pc, #340]	; (8001f1c <HAL_RCCEx_GetPeriphCLKFreq+0x160>)
 8001dc6:	f107 040c 	add.w	r4, r7, #12
 8001dca:	cb0f      	ldmia	r3, {r0, r1, r2, r3}
 8001dcc:	e884 000f 	stmia.w	r4, {r0, r1, r2, r3}
 8001dd0:	4b53      	ldr	r3, [pc, #332]	; (8001f20 <HAL_RCCEx_GetPeriphCLKFreq+0x164>)
 8001dd2:	881b      	ldrh	r3, [r3, #0]
 8001dd4:	813b      	strh	r3, [r7, #8]
 8001dd6:	2300      	movs	r3, #0
 8001dd8:	627b      	str	r3, [r7, #36]	; 0x24
 8001dda:	2300      	movs	r3, #0
 8001ddc:	62fb      	str	r3, [r7, #44]	; 0x2c
 8001dde:	2300      	movs	r3, #0
 8001de0:	623b      	str	r3, [r7, #32]
 8001de2:	2300      	movs	r3, #0
 8001de4:	61fb      	str	r3, [r7, #28]
 8001de6:	2300      	movs	r3, #0
 8001de8:	62bb      	str	r3, [r7, #40]	; 0x28
 8001dea:	687b      	ldr	r3, [r7, #4]
 8001dec:	2b02      	cmp	r3, #2
 8001dee:	d07f      	beq.n	8001ef0 <HAL_RCCEx_GetPeriphCLKFreq+0x134>
 8001df0:	2b10      	cmp	r3, #16
 8001df2:	d002      	beq.n	8001dfa <HAL_RCCEx_GetPeriphCLKFreq+0x3e>
 8001df4:	2b01      	cmp	r3, #1
 8001df6:	d048      	beq.n	8001e8a <HAL_RCCEx_GetPeriphCLKFreq+0xce>
 8001df8:	e08b      	b.n	8001f12 <HAL_RCCEx_GetPeriphCLKFreq+0x156>
 8001dfa:	4b4a      	ldr	r3, [pc, #296]	; (8001f24 <HAL_RCCEx_GetPeriphCLKFreq+0x168>)
 8001dfc:	685b      	ldr	r3, [r3, #4]
 8001dfe:	61fb      	str	r3, [r7, #28]
 8001e00:	4b48      	ldr	r3, [pc, #288]	; (8001f24 <HAL_RCCEx_GetPeriphCLKFreq+0x168>)
 8001e02:	681b      	ldr	r3, [r3, #0]
 8001e04:	f003 7380 	and.w	r3, r3, #16777216	; 0x1000000
 8001e08:	2b00      	cmp	r3, #0
 8001e0a:	d07f      	beq.n	8001f0c <HAL_RCCEx_GetPeriphCLKFreq+0x150>
 8001e0c:	69fb      	ldr	r3, [r7, #28]
 8001e0e:	0c9b      	lsrs	r3, r3, #18
 8001e10:	f003 030f 	and.w	r3, r3, #15
 8001e14:	f107 0230 	add.w	r2, r7, #48	; 0x30
 8001e18:	4413      	add	r3, r2
 8001e1a:	f813 3c24 	ldrb.w	r3, [r3, #-36]
 8001e1e:	623b      	str	r3, [r7, #32]
 8001e20:	69fb      	ldr	r3, [r7, #28]
 8001e22:	f403 3380 	and.w	r3, r3, #65536	; 0x10000
 8001e26:	2b00      	cmp	r3, #0
 8001e28:	d018      	beq.n	8001e5c <HAL_RCCEx_GetPeriphCLKFreq+0xa0>
 8001e2a:	4b3e      	ldr	r3, [pc, #248]	; (8001f24 <HAL_RCCEx_GetPeriphCLKFreq+0x168>)
 8001e2c:	685b      	ldr	r3, [r3, #4]
 8001e2e:	0c5b      	lsrs	r3, r3, #17
 8001e30:	f003 0301 	and.w	r3, r3, #1
 8001e34:	f107 0230 	add.w	r2, r7, #48	; 0x30
 8001e38:	4413      	add	r3, r2
 8001e3a:	f813 3c28 	ldrb.w	r3, [r3, #-40]
 8001e3e:	627b      	str	r3, [r7, #36]	; 0x24
 8001e40:	69fb      	ldr	r3, [r7, #28]
 8001e42:	f403 3380 	and.w	r3, r3, #65536	; 0x10000
 8001e46:	2b00      	cmp	r3, #0
 8001e48:	d00d      	beq.n	8001e66 <HAL_RCCEx_GetPeriphCLKFreq+0xaa>
 8001e4a:	4a37      	ldr	r2, [pc, #220]	; (8001f28 <HAL_RCCEx_GetPeriphCLKFreq+0x16c>)
 8001e4c:	6a7b      	ldr	r3, [r7, #36]	; 0x24
 8001e4e:	fbb2 f2f3 	udiv	r2, r2, r3
 8001e52:	6a3b      	ldr	r3, [r7, #32]
 8001e54:	fb02 f303 	mul.w	r3, r2, r3
 8001e58:	62fb      	str	r3, [r7, #44]	; 0x2c
 8001e5a:	e004      	b.n	8001e66 <HAL_RCCEx_GetPeriphCLKFreq+0xaa>
 8001e5c:	6a3b      	ldr	r3, [r7, #32]
 8001e5e:	4a33      	ldr	r2, [pc, #204]	; (8001f2c <HAL_RCCEx_GetPeriphCLKFreq+0x170>)
 8001e60:	fb02 f303 	mul.w	r3, r2, r3
 8001e64:	62fb      	str	r3, [r7, #44]	; 0x2c
 8001e66:	4b2f      	ldr	r3, [pc, #188]	; (8001f24 <HAL_RCCEx_GetPeriphCLKFreq+0x168>)
 8001e68:	685b      	ldr	r3, [r3, #4]
 8001e6a:	f403 0380 	and.w	r3, r3, #4194304	; 0x400000
 8001e6e:	f5b3 0f80 	cmp.w	r3, #4194304	; 0x400000
 8001e72:	d102      	bne.n	8001e7a <HAL_RCCEx_GetPeriphCLKFreq+0xbe>
 8001e74:	6afb      	ldr	r3, [r7, #44]	; 0x2c
 8001e76:	62bb      	str	r3, [r7, #40]	; 0x28
 8001e78:	e048      	b.n	8001f0c <HAL_RCCEx_GetPeriphCLKFreq+0x150>
 8001e7a:	6afb      	ldr	r3, [r7, #44]	; 0x2c
 8001e7c:	005b      	lsls	r3, r3, #1
 8001e7e:	4a2c      	ldr	r2, [pc, #176]	; (8001f30 <HAL_RCCEx_GetPeriphCLKFreq+0x174>)
 8001e80:	fba2 2303 	umull	r2, r3, r2, r3
 8001e84:	085b      	lsrs	r3, r3, #1
 8001e86:	62bb      	str	r3, [r7, #40]	; 0x28
 8001e88:	e040      	b.n	8001f0c <HAL_RCCEx_GetPeriphCLKFreq+0x150>
 8001e8a:	4b26      	ldr	r3, [pc, #152]	; (8001f24 <HAL_RCCEx_GetPeriphCLKFreq+0x168>)
 8001e8c:	6a1b      	ldr	r3, [r3, #32]
 8001e8e:	61fb      	str	r3, [r7, #28]
 8001e90:	69fb      	ldr	r3, [r7, #28]
 8001e92:	f403 7340 	and.w	r3, r3, #768	; 0x300
 8001e96:	f5b3 7f80 	cmp.w	r3, #256	; 0x100
 8001e9a:	d108      	bne.n	8001eae <HAL_RCCEx_GetPeriphCLKFreq+0xf2>
 8001e9c:	69fb      	ldr	r3, [r7, #28]
 8001e9e:	f003 0302 	and.w	r3, r3, #2
 8001ea2:	2b00      	cmp	r3, #0
 8001ea4:	d003      	beq.n	8001eae <HAL_RCCEx_GetPeriphCLKFreq+0xf2>
 8001ea6:	f44f 4300 	mov.w	r3, #32768	; 0x8000
 8001eaa:	62bb      	str	r3, [r7, #40]	; 0x28
 8001eac:	e01f      	b.n	8001eee <HAL_RCCEx_GetPeriphCLKFreq+0x132>
 8001eae:	69fb      	ldr	r3, [r7, #28]
 8001eb0:	f403 7340 	and.w	r3, r3, #768	; 0x300
 8001eb4:	f5b3 7f00 	cmp.w	r3, #512	; 0x200
 8001eb8:	d109      	bne.n	8001ece <HAL_RCCEx_GetPeriphCLKFreq+0x112>
 8001eba:	4b1a      	ldr	r3, [pc, #104]	; (8001f24 <HAL_RCCEx_GetPeriphCLKFreq+0x168>)
 8001ebc:	6a5b      	ldr	r3, [r3, #36]	; 0x24
 8001ebe:	f003 0302 	and.w	r3, r3, #2
 8001ec2:	2b00      	cmp	r3, #0
 8001ec4:	d003      	beq.n	8001ece <HAL_RCCEx_GetPeriphCLKFreq+0x112>
 8001ec6:	f649 4340 	movw	r3, #40000	; 0x9c40
 8001eca:	62bb      	str	r3, [r7, #40]	; 0x28
 8001ecc:	e00f      	b.n	8001eee <HAL_RCCEx_GetPeriphCLKFreq+0x132>
 8001ece:	69fb      	ldr	r3, [r7, #28]
 8001ed0:	f403 7340 	and.w	r3, r3, #768	; 0x300
 8001ed4:	f5b3 7f40 	cmp.w	r3, #768	; 0x300
 8001ed8:	d11a      	bne.n	8001f10 <HAL_RCCEx_GetPeriphCLKFreq+0x154>
 8001eda:	4b12      	ldr	r3, [pc, #72]	; (8001f24 <HAL_RCCEx_GetPeriphCLKFreq+0x168>)
 8001edc:	681b      	ldr	r3, [r3, #0]
 8001ede:	f403 3300 	and.w	r3, r3, #131072	; 0x20000
 8001ee2:	2b00      	cmp	r3, #0
 8001ee4:	d014      	beq.n	8001f10 <HAL_RCCEx_GetPeriphCLKFreq+0x154>
 8001ee6:	f24f 4324 	movw	r3, #62500	; 0xf424
 8001eea:	62bb      	str	r3, [r7, #40]	; 0x28
 8001eec:	e010      	b.n	8001f10 <HAL_RCCEx_GetPeriphCLKFreq+0x154>
 8001eee:	e00f      	b.n	8001f10 <HAL_RCCEx_GetPeriphCLKFreq+0x154>
 8001ef0:	f7ff fe7c 	bl	8001bec <HAL_RCC_GetPCLK2Freq>
 8001ef4:	4602      	mov	r2, r0
 8001ef6:	4b0b      	ldr	r3, [pc, #44]	; (8001f24 <HAL_RCCEx_GetPeriphCLKFreq+0x168>)
 8001ef8:	685b      	ldr	r3, [r3, #4]
 8001efa:	0b9b      	lsrs	r3, r3, #14
 8001efc:	f003 0303 	and.w	r3, r3, #3
 8001f00:	3301      	adds	r3, #1
 8001f02:	005b      	lsls	r3, r3, #1
 8001f04:	fbb2 f3f3 	udiv	r3, r2, r3
 8001f08:	62bb      	str	r3, [r7, #40]	; 0x28
 8001f0a:	e002      	b.n	8001f12 <HAL_RCCEx_GetPeriphCLKFreq+0x156>
 8001f0c:	bf00      	nop
 8001f0e:	e000      	b.n	8001f12 <HAL_RCCEx_GetPeriphCLKFreq+0x156>
 8001f10:	bf00      	nop
 8001f12:	6abb      	ldr	r3, [r7, #40]	; 0x28
 8001f14:	4618      	mov	r0, r3
 8001f16:	3734      	adds	r7, #52	; 0x34
 8001f18:	46bd      	mov	sp, r7
 8001f1a:	bd90      	pop	{r4, r7, pc}
 8001f1c:	08003d70 	.word	0x08003d70
 8001f20:	08003d80 	.word	0x08003d80
 8001f24:	40021000 	.word	0x40021000
 8001f28:	007a1200 	.word	0x007a1200
 8001f2c:	003d0900 	.word	0x003d0900
 8001f30:	aaaaaaab 	.word	0xaaaaaaab

08001f34 <HAL_TIM_Base_Init>:
 8001f34:	b580      	push	{r7, lr}
 8001f36:	b082      	sub	sp, #8
 8001f38:	af00      	add	r7, sp, #0
 8001f3a:	6078      	str	r0, [r7, #4]
 8001f3c:	687b      	ldr	r3, [r7, #4]
 8001f3e:	2b00      	cmp	r3, #0
 8001f40:	d101      	bne.n	8001f46 <HAL_TIM_Base_Init+0x12>
 8001f42:	2301      	movs	r3, #1
 8001f44:	e01d      	b.n	8001f82 <HAL_TIM_Base_Init+0x4e>
 8001f46:	687b      	ldr	r3, [r7, #4]
 8001f48:	f893 303d 	ldrb.w	r3, [r3, #61]	; 0x3d
 8001f4c:	b2db      	uxtb	r3, r3
 8001f4e:	2b00      	cmp	r3, #0
 8001f50:	d106      	bne.n	8001f60 <HAL_TIM_Base_Init+0x2c>
 8001f52:	687b      	ldr	r3, [r7, #4]
 8001f54:	2200      	movs	r2, #0
 8001f56:	f883 203c 	strb.w	r2, [r3, #60]	; 0x3c
 8001f5a:	6878      	ldr	r0, [r7, #4]
 8001f5c:	f001 fdd2 	bl	8003b04 <HAL_TIM_Base_MspInit>
 8001f60:	687b      	ldr	r3, [r7, #4]
 8001f62:	2202      	movs	r2, #2
 8001f64:	f883 203d 	strb.w	r2, [r3, #61]	; 0x3d
 8001f68:	687b      	ldr	r3, [r7, #4]
 8001f6a:	681a      	ldr	r2, [r3, #0]
 8001f6c:	687b      	ldr	r3, [r7, #4]
 8001f6e:	3304      	adds	r3, #4
 8001f70:	4619      	mov	r1, r3
 8001f72:	4610      	mov	r0, r2
 8001f74:	f000 fbe4 	bl	8002740 <TIM_Base_SetConfig>
 8001f78:	687b      	ldr	r3, [r7, #4]
 8001f7a:	2201      	movs	r2, #1
 8001f7c:	f883 203d 	strb.w	r2, [r3, #61]	; 0x3d
 8001f80:	2300      	movs	r3, #0
 8001f82:	4618      	mov	r0, r3
 8001f84:	3708      	adds	r7, #8
 8001f86:	46bd      	mov	sp, r7
 8001f88:	bd80      	pop	{r7, pc}

08001f8a <HAL_TIM_Base_Start>:
 8001f8a:	b480      	push	{r7}
 8001f8c:	b085      	sub	sp, #20
 8001f8e:	af00      	add	r7, sp, #0
 8001f90:	6078      	str	r0, [r7, #4]
 8001f92:	687b      	ldr	r3, [r7, #4]
 8001f94:	2202      	movs	r2, #2
 8001f96:	f883 203d 	strb.w	r2, [r3, #61]	; 0x3d
 8001f9a:	687b      	ldr	r3, [r7, #4]
 8001f9c:	681b      	ldr	r3, [r3, #0]
 8001f9e:	689b      	ldr	r3, [r3, #8]
 8001fa0:	f003 0307 	and.w	r3, r3, #7
 8001fa4:	60fb      	str	r3, [r7, #12]
 8001fa6:	68fb      	ldr	r3, [r7, #12]
 8001fa8:	2b06      	cmp	r3, #6
 8001faa:	d007      	beq.n	8001fbc <HAL_TIM_Base_Start+0x32>
 8001fac:	687b      	ldr	r3, [r7, #4]
 8001fae:	681b      	ldr	r3, [r3, #0]
 8001fb0:	681a      	ldr	r2, [r3, #0]
 8001fb2:	687b      	ldr	r3, [r7, #4]
 8001fb4:	681b      	ldr	r3, [r3, #0]
 8001fb6:	f042 0201 	orr.w	r2, r2, #1
 8001fba:	601a      	str	r2, [r3, #0]
 8001fbc:	687b      	ldr	r3, [r7, #4]
 8001fbe:	2201      	movs	r2, #1
 8001fc0:	f883 203d 	strb.w	r2, [r3, #61]	; 0x3d
 8001fc4:	2300      	movs	r3, #0
 8001fc6:	4618      	mov	r0, r3
 8001fc8:	3714      	adds	r7, #20
 8001fca:	46bd      	mov	sp, r7
 8001fcc:	bc80      	pop	{r7}
 8001fce:	4770      	bx	lr

08001fd0 <HAL_TIM_Base_Start_IT>:
 8001fd0:	b480      	push	{r7}
 8001fd2:	b085      	sub	sp, #20
 8001fd4:	af00      	add	r7, sp, #0
 8001fd6:	6078      	str	r0, [r7, #4]
 8001fd8:	687b      	ldr	r3, [r7, #4]
 8001fda:	681b      	ldr	r3, [r3, #0]
 8001fdc:	68da      	ldr	r2, [r3, #12]
 8001fde:	687b      	ldr	r3, [r7, #4]
 8001fe0:	681b      	ldr	r3, [r3, #0]
 8001fe2:	f042 0201 	orr.w	r2, r2, #1
 8001fe6:	60da      	str	r2, [r3, #12]
 8001fe8:	687b      	ldr	r3, [r7, #4]
 8001fea:	681b      	ldr	r3, [r3, #0]
 8001fec:	689b      	ldr	r3, [r3, #8]
 8001fee:	f003 0307 	and.w	r3, r3, #7
 8001ff2:	60fb      	str	r3, [r7, #12]
 8001ff4:	68fb      	ldr	r3, [r7, #12]
 8001ff6:	2b06      	cmp	r3, #6
 8001ff8:	d007      	beq.n	800200a <HAL_TIM_Base_Start_IT+0x3a>
 8001ffa:	687b      	ldr	r3, [r7, #4]
 8001ffc:	681b      	ldr	r3, [r3, #0]
 8001ffe:	681a      	ldr	r2, [r3, #0]
 8002000:	687b      	ldr	r3, [r7, #4]
 8002002:	681b      	ldr	r3, [r3, #0]
 8002004:	f042 0201 	orr.w	r2, r2, #1
 8002008:	601a      	str	r2, [r3, #0]
 800200a:	2300      	movs	r3, #0
 800200c:	4618      	mov	r0, r3
 800200e:	3714      	adds	r7, #20
 8002010:	46bd      	mov	sp, r7
 8002012:	bc80      	pop	{r7}
 8002014:	4770      	bx	lr

08002016 <HAL_TIM_PWM_Init>:
 8002016:	b580      	push	{r7, lr}
 8002018:	b082      	sub	sp, #8
 800201a:	af00      	add	r7, sp, #0
 800201c:	6078      	str	r0, [r7, #4]
 800201e:	687b      	ldr	r3, [r7, #4]
 8002020:	2b00      	cmp	r3, #0
 8002022:	d101      	bne.n	8002028 <HAL_TIM_PWM_Init+0x12>
 8002024:	2301      	movs	r3, #1
 8002026:	e01d      	b.n	8002064 <HAL_TIM_PWM_Init+0x4e>
 8002028:	687b      	ldr	r3, [r7, #4]
 800202a:	f893 303d 	ldrb.w	r3, [r3, #61]	; 0x3d
 800202e:	b2db      	uxtb	r3, r3
 8002030:	2b00      	cmp	r3, #0
 8002032:	d106      	bne.n	8002042 <HAL_TIM_PWM_Init+0x2c>
 8002034:	687b      	ldr	r3, [r7, #4]
 8002036:	2200      	movs	r2, #0
 8002038:	f883 203c 	strb.w	r2, [r3, #60]	; 0x3c
 800203c:	6878      	ldr	r0, [r7, #4]
 800203e:	f001 fddf 	bl	8003c00 <HAL_TIM_PWM_MspInit>
 8002042:	687b      	ldr	r3, [r7, #4]
 8002044:	2202      	movs	r2, #2
 8002046:	f883 203d 	strb.w	r2, [r3, #61]	; 0x3d
 800204a:	687b      	ldr	r3, [r7, #4]
 800204c:	681a      	ldr	r2, [r3, #0]
 800204e:	687b      	ldr	r3, [r7, #4]
 8002050:	3304      	adds	r3, #4
 8002052:	4619      	mov	r1, r3
 8002054:	4610      	mov	r0, r2
 8002056:	f000 fb73 	bl	8002740 <TIM_Base_SetConfig>
 800205a:	687b      	ldr	r3, [r7, #4]
 800205c:	2201      	movs	r2, #1
 800205e:	f883 203d 	strb.w	r2, [r3, #61]	; 0x3d
 8002062:	2300      	movs	r3, #0
 8002064:	4618      	mov	r0, r3
 8002066:	3708      	adds	r7, #8
 8002068:	46bd      	mov	sp, r7
 800206a:	bd80      	pop	{r7, pc}

0800206c <HAL_TIM_PWM_Start>:
 800206c:	b580      	push	{r7, lr}
 800206e:	b084      	sub	sp, #16
 8002070:	af00      	add	r7, sp, #0
 8002072:	6078      	str	r0, [r7, #4]
 8002074:	6039      	str	r1, [r7, #0]
 8002076:	687b      	ldr	r3, [r7, #4]
 8002078:	681b      	ldr	r3, [r3, #0]
 800207a:	2201      	movs	r2, #1
 800207c:	6839      	ldr	r1, [r7, #0]
 800207e:	4618      	mov	r0, r3
 8002080:	f000 fdde 	bl	8002c40 <TIM_CCxChannelCmd>
 8002084:	687b      	ldr	r3, [r7, #4]
 8002086:	681b      	ldr	r3, [r3, #0]
 8002088:	4a10      	ldr	r2, [pc, #64]	; (80020cc <HAL_TIM_PWM_Start+0x60>)
 800208a:	4293      	cmp	r3, r2
 800208c:	d107      	bne.n	800209e <HAL_TIM_PWM_Start+0x32>
 800208e:	687b      	ldr	r3, [r7, #4]
 8002090:	681b      	ldr	r3, [r3, #0]
 8002092:	6c5a      	ldr	r2, [r3, #68]	; 0x44
 8002094:	687b      	ldr	r3, [r7, #4]
 8002096:	681b      	ldr	r3, [r3, #0]
 8002098:	f442 4200 	orr.w	r2, r2, #32768	; 0x8000
 800209c:	645a      	str	r2, [r3, #68]	; 0x44
 800209e:	687b      	ldr	r3, [r7, #4]
 80020a0:	681b      	ldr	r3, [r3, #0]
 80020a2:	689b      	ldr	r3, [r3, #8]
 80020a4:	f003 0307 	and.w	r3, r3, #7
 80020a8:	60fb      	str	r3, [r7, #12]
 80020aa:	68fb      	ldr	r3, [r7, #12]
 80020ac:	2b06      	cmp	r3, #6
 80020ae:	d007      	beq.n	80020c0 <HAL_TIM_PWM_Start+0x54>
 80020b0:	687b      	ldr	r3, [r7, #4]
 80020b2:	681b      	ldr	r3, [r3, #0]
 80020b4:	681a      	ldr	r2, [r3, #0]
 80020b6:	687b      	ldr	r3, [r7, #4]
 80020b8:	681b      	ldr	r3, [r3, #0]
 80020ba:	f042 0201 	orr.w	r2, r2, #1
 80020be:	601a      	str	r2, [r3, #0]
 80020c0:	2300      	movs	r3, #0
 80020c2:	4618      	mov	r0, r3
 80020c4:	3710      	adds	r7, #16
 80020c6:	46bd      	mov	sp, r7
 80020c8:	bd80      	pop	{r7, pc}
 80020ca:	bf00      	nop
 80020cc:	40012c00 	.word	0x40012c00

080020d0 <HAL_TIM_Encoder_Init>:
 80020d0:	b580      	push	{r7, lr}
 80020d2:	b086      	sub	sp, #24
 80020d4:	af00      	add	r7, sp, #0
 80020d6:	6078      	str	r0, [r7, #4]
 80020d8:	6039      	str	r1, [r7, #0]
 80020da:	687b      	ldr	r3, [r7, #4]
 80020dc:	2b00      	cmp	r3, #0
 80020de:	d101      	bne.n	80020e4 <HAL_TIM_Encoder_Init+0x14>
 80020e0:	2301      	movs	r3, #1
 80020e2:	e07f      	b.n	80021e4 <HAL_TIM_Encoder_Init+0x114>
 80020e4:	687b      	ldr	r3, [r7, #4]
 80020e6:	f893 303d 	ldrb.w	r3, [r3, #61]	; 0x3d
 80020ea:	b2db      	uxtb	r3, r3
 80020ec:	2b00      	cmp	r3, #0
 80020ee:	d106      	bne.n	80020fe <HAL_TIM_Encoder_Init+0x2e>
 80020f0:	687b      	ldr	r3, [r7, #4]
 80020f2:	2200      	movs	r2, #0
 80020f4:	f883 203c 	strb.w	r2, [r3, #60]	; 0x3c
 80020f8:	6878      	ldr	r0, [r7, #4]
 80020fa:	f001 fd45 	bl	8003b88 <HAL_TIM_Encoder_MspInit>
 80020fe:	687b      	ldr	r3, [r7, #4]
 8002100:	2202      	movs	r2, #2
 8002102:	f883 203d 	strb.w	r2, [r3, #61]	; 0x3d
 8002106:	687b      	ldr	r3, [r7, #4]
 8002108:	681b      	ldr	r3, [r3, #0]
 800210a:	689b      	ldr	r3, [r3, #8]
 800210c:	687a      	ldr	r2, [r7, #4]
 800210e:	6812      	ldr	r2, [r2, #0]
 8002110:	f423 4380 	bic.w	r3, r3, #16384	; 0x4000
 8002114:	f023 0307 	bic.w	r3, r3, #7
 8002118:	6093      	str	r3, [r2, #8]
 800211a:	687b      	ldr	r3, [r7, #4]
 800211c:	681a      	ldr	r2, [r3, #0]
 800211e:	687b      	ldr	r3, [r7, #4]
 8002120:	3304      	adds	r3, #4
 8002122:	4619      	mov	r1, r3
 8002124:	4610      	mov	r0, r2
 8002126:	f000 fb0b 	bl	8002740 <TIM_Base_SetConfig>
 800212a:	687b      	ldr	r3, [r7, #4]
 800212c:	681b      	ldr	r3, [r3, #0]
 800212e:	689b      	ldr	r3, [r3, #8]
 8002130:	617b      	str	r3, [r7, #20]
 8002132:	687b      	ldr	r3, [r7, #4]
 8002134:	681b      	ldr	r3, [r3, #0]
 8002136:	699b      	ldr	r3, [r3, #24]
 8002138:	613b      	str	r3, [r7, #16]
 800213a:	687b      	ldr	r3, [r7, #4]
 800213c:	681b      	ldr	r3, [r3, #0]
 800213e:	6a1b      	ldr	r3, [r3, #32]
 8002140:	60fb      	str	r3, [r7, #12]
 8002142:	683b      	ldr	r3, [r7, #0]
 8002144:	681b      	ldr	r3, [r3, #0]
 8002146:	697a      	ldr	r2, [r7, #20]
 8002148:	4313      	orrs	r3, r2
 800214a:	617b      	str	r3, [r7, #20]
 800214c:	693b      	ldr	r3, [r7, #16]
 800214e:	f423 7340 	bic.w	r3, r3, #768	; 0x300
 8002152:	f023 0303 	bic.w	r3, r3, #3
 8002156:	613b      	str	r3, [r7, #16]
 8002158:	683b      	ldr	r3, [r7, #0]
 800215a:	689a      	ldr	r2, [r3, #8]
 800215c:	683b      	ldr	r3, [r7, #0]
 800215e:	699b      	ldr	r3, [r3, #24]
 8002160:	021b      	lsls	r3, r3, #8
 8002162:	4313      	orrs	r3, r2
 8002164:	693a      	ldr	r2, [r7, #16]
 8002166:	4313      	orrs	r3, r2
 8002168:	613b      	str	r3, [r7, #16]
 800216a:	693b      	ldr	r3, [r7, #16]
 800216c:	f423 6340 	bic.w	r3, r3, #3072	; 0xc00
 8002170:	f023 030c 	bic.w	r3, r3, #12
 8002174:	613b      	str	r3, [r7, #16]
 8002176:	693b      	ldr	r3, [r7, #16]
 8002178:	f423 4370 	bic.w	r3, r3, #61440	; 0xf000
 800217c:	f023 03f0 	bic.w	r3, r3, #240	; 0xf0
 8002180:	613b      	str	r3, [r7, #16]
 8002182:	683b      	ldr	r3, [r7, #0]
 8002184:	68da      	ldr	r2, [r3, #12]
 8002186:	683b      	ldr	r3, [r7, #0]
 8002188:	69db      	ldr	r3, [r3, #28]
 800218a:	021b      	lsls	r3, r3, #8
 800218c:	4313      	orrs	r3, r2
 800218e:	693a      	ldr	r2, [r7, #16]
 8002190:	4313      	orrs	r3, r2
 8002192:	613b      	str	r3, [r7, #16]
 8002194:	683b      	ldr	r3, [r7, #0]
 8002196:	691b      	ldr	r3, [r3, #16]
 8002198:	011a      	lsls	r2, r3, #4
 800219a:	683b      	ldr	r3, [r7, #0]
 800219c:	6a1b      	ldr	r3, [r3, #32]
 800219e:	031b      	lsls	r3, r3, #12
 80021a0:	4313      	orrs	r3, r2
 80021a2:	693a      	ldr	r2, [r7, #16]
 80021a4:	4313      	orrs	r3, r2
 80021a6:	613b      	str	r3, [r7, #16]
 80021a8:	68fb      	ldr	r3, [r7, #12]
 80021aa:	f023 0322 	bic.w	r3, r3, #34	; 0x22
 80021ae:	60fb      	str	r3, [r7, #12]
 80021b0:	683b      	ldr	r3, [r7, #0]
 80021b2:	685a      	ldr	r2, [r3, #4]
 80021b4:	683b      	ldr	r3, [r7, #0]
 80021b6:	695b      	ldr	r3, [r3, #20]
 80021b8:	011b      	lsls	r3, r3, #4
 80021ba:	4313      	orrs	r3, r2
 80021bc:	68fa      	ldr	r2, [r7, #12]
 80021be:	4313      	orrs	r3, r2
 80021c0:	60fb      	str	r3, [r7, #12]
 80021c2:	687b      	ldr	r3, [r7, #4]
 80021c4:	681b      	ldr	r3, [r3, #0]
 80021c6:	697a      	ldr	r2, [r7, #20]
 80021c8:	609a      	str	r2, [r3, #8]
 80021ca:	687b      	ldr	r3, [r7, #4]
 80021cc:	681b      	ldr	r3, [r3, #0]
 80021ce:	693a      	ldr	r2, [r7, #16]
 80021d0:	619a      	str	r2, [r3, #24]
 80021d2:	687b      	ldr	r3, [r7, #4]
 80021d4:	681b      	ldr	r3, [r3, #0]
 80021d6:	68fa      	ldr	r2, [r7, #12]
 80021d8:	621a      	str	r2, [r3, #32]
 80021da:	687b      	ldr	r3, [r7, #4]
 80021dc:	2201      	movs	r2, #1
 80021de:	f883 203d 	strb.w	r2, [r3, #61]	; 0x3d
 80021e2:	2300      	movs	r3, #0
 80021e4:	4618      	mov	r0, r3
 80021e6:	3718      	adds	r7, #24
 80021e8:	46bd      	mov	sp, r7
 80021ea:	bd80      	pop	{r7, pc}

080021ec <HAL_TIM_IRQHandler>:
 80021ec:	b580      	push	{r7, lr}
 80021ee:	b082      	sub	sp, #8
 80021f0:	af00      	add	r7, sp, #0
 80021f2:	6078      	str	r0, [r7, #4]
 80021f4:	687b      	ldr	r3, [r7, #4]
 80021f6:	681b      	ldr	r3, [r3, #0]
 80021f8:	691b      	ldr	r3, [r3, #16]
 80021fa:	f003 0302 	and.w	r3, r3, #2
 80021fe:	2b02      	cmp	r3, #2
 8002200:	d122      	bne.n	8002248 <HAL_TIM_IRQHandler+0x5c>
 8002202:	687b      	ldr	r3, [r7, #4]
 8002204:	681b      	ldr	r3, [r3, #0]
 8002206:	68db      	ldr	r3, [r3, #12]
 8002208:	f003 0302 	and.w	r3, r3, #2
 800220c:	2b02      	cmp	r3, #2
 800220e:	d11b      	bne.n	8002248 <HAL_TIM_IRQHandler+0x5c>
 8002210:	687b      	ldr	r3, [r7, #4]
 8002212:	681b      	ldr	r3, [r3, #0]
 8002214:	f06f 0202 	mvn.w	r2, #2
 8002218:	611a      	str	r2, [r3, #16]
 800221a:	687b      	ldr	r3, [r7, #4]
 800221c:	2201      	movs	r2, #1
 800221e:	771a      	strb	r2, [r3, #28]
 8002220:	687b      	ldr	r3, [r7, #4]
 8002222:	681b      	ldr	r3, [r3, #0]
 8002224:	699b      	ldr	r3, [r3, #24]
 8002226:	f003 0303 	and.w	r3, r3, #3
 800222a:	2b00      	cmp	r3, #0
 800222c:	d003      	beq.n	8002236 <HAL_TIM_IRQHandler+0x4a>
 800222e:	6878      	ldr	r0, [r7, #4]
 8002230:	f000 fa6a 	bl	8002708 <HAL_TIM_IC_CaptureCallback>
 8002234:	e005      	b.n	8002242 <HAL_TIM_IRQHandler+0x56>
 8002236:	6878      	ldr	r0, [r7, #4]
 8002238:	f000 fa5d 	bl	80026f6 <HAL_TIM_OC_DelayElapsedCallback>
 800223c:	6878      	ldr	r0, [r7, #4]
 800223e:	f000 fa6c 	bl	800271a <HAL_TIM_PWM_PulseFinishedCallback>
 8002242:	687b      	ldr	r3, [r7, #4]
 8002244:	2200      	movs	r2, #0
 8002246:	771a      	strb	r2, [r3, #28]
 8002248:	687b      	ldr	r3, [r7, #4]
 800224a:	681b      	ldr	r3, [r3, #0]
 800224c:	691b      	ldr	r3, [r3, #16]
 800224e:	f003 0304 	and.w	r3, r3, #4
 8002252:	2b04      	cmp	r3, #4
 8002254:	d122      	bne.n	800229c <HAL_TIM_IRQHandler+0xb0>
 8002256:	687b      	ldr	r3, [r7, #4]
 8002258:	681b      	ldr	r3, [r3, #0]
 800225a:	68db      	ldr	r3, [r3, #12]
 800225c:	f003 0304 	and.w	r3, r3, #4
 8002260:	2b04      	cmp	r3, #4
 8002262:	d11b      	bne.n	800229c <HAL_TIM_IRQHandler+0xb0>
 8002264:	687b      	ldr	r3, [r7, #4]
 8002266:	681b      	ldr	r3, [r3, #0]
 8002268:	f06f 0204 	mvn.w	r2, #4
 800226c:	611a      	str	r2, [r3, #16]
 800226e:	687b      	ldr	r3, [r7, #4]
 8002270:	2202      	movs	r2, #2
 8002272:	771a      	strb	r2, [r3, #28]
 8002274:	687b      	ldr	r3, [r7, #4]
 8002276:	681b      	ldr	r3, [r3, #0]
 8002278:	699b      	ldr	r3, [r3, #24]
 800227a:	f403 7340 	and.w	r3, r3, #768	; 0x300
 800227e:	2b00      	cmp	r3, #0
 8002280:	d003      	beq.n	800228a <HAL_TIM_IRQHandler+0x9e>
 8002282:	6878      	ldr	r0, [r7, #4]
 8002284:	f000 fa40 	bl	8002708 <HAL_TIM_IC_CaptureCallback>
 8002288:	e005      	b.n	8002296 <HAL_TIM_IRQHandler+0xaa>
 800228a:	6878      	ldr	r0, [r7, #4]
 800228c:	f000 fa33 	bl	80026f6 <HAL_TIM_OC_DelayElapsedCallback>
 8002290:	6878      	ldr	r0, [r7, #4]
 8002292:	f000 fa42 	bl	800271a <HAL_TIM_PWM_PulseFinishedCallback>
 8002296:	687b      	ldr	r3, [r7, #4]
 8002298:	2200      	movs	r2, #0
 800229a:	771a      	strb	r2, [r3, #28]
 800229c:	687b      	ldr	r3, [r7, #4]
 800229e:	681b      	ldr	r3, [r3, #0]
 80022a0:	691b      	ldr	r3, [r3, #16]
 80022a2:	f003 0308 	and.w	r3, r3, #8
 80022a6:	2b08      	cmp	r3, #8
 80022a8:	d122      	bne.n	80022f0 <HAL_TIM_IRQHandler+0x104>
 80022aa:	687b      	ldr	r3, [r7, #4]
 80022ac:	681b      	ldr	r3, [r3, #0]
 80022ae:	68db      	ldr	r3, [r3, #12]
 80022b0:	f003 0308 	and.w	r3, r3, #8
 80022b4:	2b08      	cmp	r3, #8
 80022b6:	d11b      	bne.n	80022f0 <HAL_TIM_IRQHandler+0x104>
 80022b8:	687b      	ldr	r3, [r7, #4]
 80022ba:	681b      	ldr	r3, [r3, #0]
 80022bc:	f06f 0208 	mvn.w	r2, #8
 80022c0:	611a      	str	r2, [r3, #16]
 80022c2:	687b      	ldr	r3, [r7, #4]
 80022c4:	2204      	movs	r2, #4
 80022c6:	771a      	strb	r2, [r3, #28]
 80022c8:	687b      	ldr	r3, [r7, #4]
 80022ca:	681b      	ldr	r3, [r3, #0]
 80022cc:	69db      	ldr	r3, [r3, #28]
 80022ce:	f003 0303 	and.w	r3, r3, #3
 80022d2:	2b00      	cmp	r3, #0
 80022d4:	d003      	beq.n	80022de <HAL_TIM_IRQHandler+0xf2>
 80022d6:	6878      	ldr	r0, [r7, #4]
 80022d8:	f000 fa16 	bl	8002708 <HAL_TIM_IC_CaptureCallback>
 80022dc:	e005      	b.n	80022ea <HAL_TIM_IRQHandler+0xfe>
 80022de:	6878      	ldr	r0, [r7, #4]
 80022e0:	f000 fa09 	bl	80026f6 <HAL_TIM_OC_DelayElapsedCallback>
 80022e4:	6878      	ldr	r0, [r7, #4]
 80022e6:	f000 fa18 	bl	800271a <HAL_TIM_PWM_PulseFinishedCallback>
 80022ea:	687b      	ldr	r3, [r7, #4]
 80022ec:	2200      	movs	r2, #0
 80022ee:	771a      	strb	r2, [r3, #28]
 80022f0:	687b      	ldr	r3, [r7, #4]
 80022f2:	681b      	ldr	r3, [r3, #0]
 80022f4:	691b      	ldr	r3, [r3, #16]
 80022f6:	f003 0310 	and.w	r3, r3, #16
 80022fa:	2b10      	cmp	r3, #16
 80022fc:	d122      	bne.n	8002344 <HAL_TIM_IRQHandler+0x158>
 80022fe:	687b      	ldr	r3, [r7, #4]
 8002300:	681b      	ldr	r3, [r3, #0]
 8002302:	68db      	ldr	r3, [r3, #12]
 8002304:	f003 0310 	and.w	r3, r3, #16
 8002308:	2b10      	cmp	r3, #16
 800230a:	d11b      	bne.n	8002344 <HAL_TIM_IRQHandler+0x158>
 800230c:	687b      	ldr	r3, [r7, #4]
 800230e:	681b      	ldr	r3, [r3, #0]
 8002310:	f06f 0210 	mvn.w	r2, #16
 8002314:	611a      	str	r2, [r3, #16]
 8002316:	687b      	ldr	r3, [r7, #4]
 8002318:	2208      	movs	r2, #8
 800231a:	771a      	strb	r2, [r3, #28]
 800231c:	687b      	ldr	r3, [r7, #4]
 800231e:	681b      	ldr	r3, [r3, #0]
 8002320:	69db      	ldr	r3, [r3, #28]
 8002322:	f403 7340 	and.w	r3, r3, #768	; 0x300
 8002326:	2b00      	cmp	r3, #0
 8002328:	d003      	beq.n	8002332 <HAL_TIM_IRQHandler+0x146>
 800232a:	6878      	ldr	r0, [r7, #4]
 800232c:	f000 f9ec 	bl	8002708 <HAL_TIM_IC_CaptureCallback>
 8002330:	e005      	b.n	800233e <HAL_TIM_IRQHandler+0x152>
 8002332:	6878      	ldr	r0, [r7, #4]
 8002334:	f000 f9df 	bl	80026f6 <HAL_TIM_OC_DelayElapsedCallback>
 8002338:	6878      	ldr	r0, [r7, #4]
 800233a:	f000 f9ee 	bl	800271a <HAL_TIM_PWM_PulseFinishedCallback>
 800233e:	687b      	ldr	r3, [r7, #4]
 8002340:	2200      	movs	r2, #0
 8002342:	771a      	strb	r2, [r3, #28]
 8002344:	687b      	ldr	r3, [r7, #4]
 8002346:	681b      	ldr	r3, [r3, #0]
 8002348:	691b      	ldr	r3, [r3, #16]
 800234a:	f003 0301 	and.w	r3, r3, #1
 800234e:	2b01      	cmp	r3, #1
 8002350:	d10e      	bne.n	8002370 <HAL_TIM_IRQHandler+0x184>
 8002352:	687b      	ldr	r3, [r7, #4]
 8002354:	681b      	ldr	r3, [r3, #0]
 8002356:	68db      	ldr	r3, [r3, #12]
 8002358:	f003 0301 	and.w	r3, r3, #1
 800235c:	2b01      	cmp	r3, #1
 800235e:	d107      	bne.n	8002370 <HAL_TIM_IRQHandler+0x184>
 8002360:	687b      	ldr	r3, [r7, #4]
 8002362:	681b      	ldr	r3, [r3, #0]
 8002364:	f06f 0201 	mvn.w	r2, #1
 8002368:	611a      	str	r2, [r3, #16]
 800236a:	6878      	ldr	r0, [r7, #4]
 800236c:	f000 ff42 	bl	80031f4 <HAL_TIM_PeriodElapsedCallback>
 8002370:	687b      	ldr	r3, [r7, #4]
 8002372:	681b      	ldr	r3, [r3, #0]
 8002374:	691b      	ldr	r3, [r3, #16]
 8002376:	f003 0380 	and.w	r3, r3, #128	; 0x80
 800237a:	2b80      	cmp	r3, #128	; 0x80
 800237c:	d10e      	bne.n	800239c <HAL_TIM_IRQHandler+0x1b0>
 800237e:	687b      	ldr	r3, [r7, #4]
 8002380:	681b      	ldr	r3, [r3, #0]
 8002382:	68db      	ldr	r3, [r3, #12]
 8002384:	f003 0380 	and.w	r3, r3, #128	; 0x80
 8002388:	2b80      	cmp	r3, #128	; 0x80
 800238a:	d107      	bne.n	800239c <HAL_TIM_IRQHandler+0x1b0>
 800238c:	687b      	ldr	r3, [r7, #4]
 800238e:	681b      	ldr	r3, [r3, #0]
 8002390:	f06f 0280 	mvn.w	r2, #128	; 0x80
 8002394:	611a      	str	r2, [r3, #16]
 8002396:	6878      	ldr	r0, [r7, #4]
 8002398:	f000 fcc3 	bl	8002d22 <HAL_TIMEx_BreakCallback>
 800239c:	687b      	ldr	r3, [r7, #4]
 800239e:	681b      	ldr	r3, [r3, #0]
 80023a0:	691b      	ldr	r3, [r3, #16]
 80023a2:	f003 0340 	and.w	r3, r3, #64	; 0x40
 80023a6:	2b40      	cmp	r3, #64	; 0x40
 80023a8:	d10e      	bne.n	80023c8 <HAL_TIM_IRQHandler+0x1dc>
 80023aa:	687b      	ldr	r3, [r7, #4]
 80023ac:	681b      	ldr	r3, [r3, #0]
 80023ae:	68db      	ldr	r3, [r3, #12]
 80023b0:	f003 0340 	and.w	r3, r3, #64	; 0x40
 80023b4:	2b40      	cmp	r3, #64	; 0x40
 80023b6:	d107      	bne.n	80023c8 <HAL_TIM_IRQHandler+0x1dc>
 80023b8:	687b      	ldr	r3, [r7, #4]
 80023ba:	681b      	ldr	r3, [r3, #0]
 80023bc:	f06f 0240 	mvn.w	r2, #64	; 0x40
 80023c0:	611a      	str	r2, [r3, #16]
 80023c2:	6878      	ldr	r0, [r7, #4]
 80023c4:	f000 f9b2 	bl	800272c <HAL_TIM_TriggerCallback>
 80023c8:	687b      	ldr	r3, [r7, #4]
 80023ca:	681b      	ldr	r3, [r3, #0]
 80023cc:	691b      	ldr	r3, [r3, #16]
 80023ce:	f003 0320 	and.w	r3, r3, #32
 80023d2:	2b20      	cmp	r3, #32
 80023d4:	d10e      	bne.n	80023f4 <HAL_TIM_IRQHandler+0x208>
 80023d6:	687b      	ldr	r3, [r7, #4]
 80023d8:	681b      	ldr	r3, [r3, #0]
 80023da:	68db      	ldr	r3, [r3, #12]
 80023dc:	f003 0320 	and.w	r3, r3, #32
 80023e0:	2b20      	cmp	r3, #32
 80023e2:	d107      	bne.n	80023f4 <HAL_TIM_IRQHandler+0x208>
 80023e4:	687b      	ldr	r3, [r7, #4]
 80023e6:	681b      	ldr	r3, [r3, #0]
 80023e8:	f06f 0220 	mvn.w	r2, #32
 80023ec:	611a      	str	r2, [r3, #16]
 80023ee:	6878      	ldr	r0, [r7, #4]
 80023f0:	f000 fc8e 	bl	8002d10 <HAL_TIMEx_CommutCallback>
 80023f4:	bf00      	nop
 80023f6:	3708      	adds	r7, #8
 80023f8:	46bd      	mov	sp, r7
 80023fa:	bd80      	pop	{r7, pc}

080023fc <HAL_TIM_PWM_ConfigChannel>:
 80023fc:	b580      	push	{r7, lr}
 80023fe:	b084      	sub	sp, #16
 8002400:	af00      	add	r7, sp, #0
 8002402:	60f8      	str	r0, [r7, #12]
 8002404:	60b9      	str	r1, [r7, #8]
 8002406:	607a      	str	r2, [r7, #4]
 8002408:	68fb      	ldr	r3, [r7, #12]
 800240a:	f893 303c 	ldrb.w	r3, [r3, #60]	; 0x3c
 800240e:	2b01      	cmp	r3, #1
 8002410:	d101      	bne.n	8002416 <HAL_TIM_PWM_ConfigChannel+0x1a>
 8002412:	2302      	movs	r3, #2
 8002414:	e0b4      	b.n	8002580 <HAL_TIM_PWM_ConfigChannel+0x184>
 8002416:	68fb      	ldr	r3, [r7, #12]
 8002418:	2201      	movs	r2, #1
 800241a:	f883 203c 	strb.w	r2, [r3, #60]	; 0x3c
 800241e:	68fb      	ldr	r3, [r7, #12]
 8002420:	2202      	movs	r2, #2
 8002422:	f883 203d 	strb.w	r2, [r3, #61]	; 0x3d
 8002426:	687b      	ldr	r3, [r7, #4]
 8002428:	2b0c      	cmp	r3, #12
 800242a:	f200 809f 	bhi.w	800256c <HAL_TIM_PWM_ConfigChannel+0x170>
 800242e:	a201      	add	r2, pc, #4	; (adr r2, 8002434 <HAL_TIM_PWM_ConfigChannel+0x38>)
 8002430:	f852 f023 	ldr.w	pc, [r2, r3, lsl #2]
 8002434:	08002469 	.word	0x08002469
 8002438:	0800256d 	.word	0x0800256d
 800243c:	0800256d 	.word	0x0800256d
 8002440:	0800256d 	.word	0x0800256d
 8002444:	080024a9 	.word	0x080024a9
 8002448:	0800256d 	.word	0x0800256d
 800244c:	0800256d 	.word	0x0800256d
 8002450:	0800256d 	.word	0x0800256d
 8002454:	080024eb 	.word	0x080024eb
 8002458:	0800256d 	.word	0x0800256d
 800245c:	0800256d 	.word	0x0800256d
 8002460:	0800256d 	.word	0x0800256d
 8002464:	0800252b 	.word	0x0800252b
 8002468:	68fb      	ldr	r3, [r7, #12]
 800246a:	681b      	ldr	r3, [r3, #0]
 800246c:	68b9      	ldr	r1, [r7, #8]
 800246e:	4618      	mov	r0, r3
 8002470:	f000 f9c8 	bl	8002804 <TIM_OC1_SetConfig>
 8002474:	68fb      	ldr	r3, [r7, #12]
 8002476:	681b      	ldr	r3, [r3, #0]
 8002478:	699a      	ldr	r2, [r3, #24]
 800247a:	68fb      	ldr	r3, [r7, #12]
 800247c:	681b      	ldr	r3, [r3, #0]
 800247e:	f042 0208 	orr.w	r2, r2, #8
 8002482:	619a      	str	r2, [r3, #24]
 8002484:	68fb      	ldr	r3, [r7, #12]
 8002486:	681b      	ldr	r3, [r3, #0]
 8002488:	699a      	ldr	r2, [r3, #24]
 800248a:	68fb      	ldr	r3, [r7, #12]
 800248c:	681b      	ldr	r3, [r3, #0]
 800248e:	f022 0204 	bic.w	r2, r2, #4
 8002492:	619a      	str	r2, [r3, #24]
 8002494:	68fb      	ldr	r3, [r7, #12]
 8002496:	681b      	ldr	r3, [r3, #0]
 8002498:	6999      	ldr	r1, [r3, #24]
 800249a:	68bb      	ldr	r3, [r7, #8]
 800249c:	691a      	ldr	r2, [r3, #16]
 800249e:	68fb      	ldr	r3, [r7, #12]
 80024a0:	681b      	ldr	r3, [r3, #0]
 80024a2:	430a      	orrs	r2, r1
 80024a4:	619a      	str	r2, [r3, #24]
 80024a6:	e062      	b.n	800256e <HAL_TIM_PWM_ConfigChannel+0x172>
 80024a8:	68fb      	ldr	r3, [r7, #12]
 80024aa:	681b      	ldr	r3, [r3, #0]
 80024ac:	68b9      	ldr	r1, [r7, #8]
 80024ae:	4618      	mov	r0, r3
 80024b0:	f000 fa0e 	bl	80028d0 <TIM_OC2_SetConfig>
 80024b4:	68fb      	ldr	r3, [r7, #12]
 80024b6:	681b      	ldr	r3, [r3, #0]
 80024b8:	699a      	ldr	r2, [r3, #24]
 80024ba:	68fb      	ldr	r3, [r7, #12]
 80024bc:	681b      	ldr	r3, [r3, #0]
 80024be:	f442 6200 	orr.w	r2, r2, #2048	; 0x800
 80024c2:	619a      	str	r2, [r3, #24]
 80024c4:	68fb      	ldr	r3, [r7, #12]
 80024c6:	681b      	ldr	r3, [r3, #0]
 80024c8:	699a      	ldr	r2, [r3, #24]
 80024ca:	68fb      	ldr	r3, [r7, #12]
 80024cc:	681b      	ldr	r3, [r3, #0]
 80024ce:	f422 6280 	bic.w	r2, r2, #1024	; 0x400
 80024d2:	619a      	str	r2, [r3, #24]
 80024d4:	68fb      	ldr	r3, [r7, #12]
 80024d6:	681b      	ldr	r3, [r3, #0]
 80024d8:	6999      	ldr	r1, [r3, #24]
 80024da:	68bb      	ldr	r3, [r7, #8]
 80024dc:	691b      	ldr	r3, [r3, #16]
 80024de:	021a      	lsls	r2, r3, #8
 80024e0:	68fb      	ldr	r3, [r7, #12]
 80024e2:	681b      	ldr	r3, [r3, #0]
 80024e4:	430a      	orrs	r2, r1
 80024e6:	619a      	str	r2, [r3, #24]
 80024e8:	e041      	b.n	800256e <HAL_TIM_PWM_ConfigChannel+0x172>
 80024ea:	68fb      	ldr	r3, [r7, #12]
 80024ec:	681b      	ldr	r3, [r3, #0]
 80024ee:	68b9      	ldr	r1, [r7, #8]
 80024f0:	4618      	mov	r0, r3
 80024f2:	f000 fa57 	bl	80029a4 <TIM_OC3_SetConfig>
 80024f6:	68fb      	ldr	r3, [r7, #12]
 80024f8:	681b      	ldr	r3, [r3, #0]
 80024fa:	69da      	ldr	r2, [r3, #28]
 80024fc:	68fb      	ldr	r3, [r7, #12]
 80024fe:	681b      	ldr	r3, [r3, #0]
 8002500:	f042 0208 	orr.w	r2, r2, #8
 8002504:	61da      	str	r2, [r3, #28]
 8002506:	68fb      	ldr	r3, [r7, #12]
 8002508:	681b      	ldr	r3, [r3, #0]
 800250a:	69da      	ldr	r2, [r3, #28]
 800250c:	68fb      	ldr	r3, [r7, #12]
 800250e:	681b      	ldr	r3, [r3, #0]
 8002510:	f022 0204 	bic.w	r2, r2, #4
 8002514:	61da      	str	r2, [r3, #28]
 8002516:	68fb      	ldr	r3, [r7, #12]
 8002518:	681b      	ldr	r3, [r3, #0]
 800251a:	69d9      	ldr	r1, [r3, #28]
 800251c:	68bb      	ldr	r3, [r7, #8]
 800251e:	691a      	ldr	r2, [r3, #16]
 8002520:	68fb      	ldr	r3, [r7, #12]
 8002522:	681b      	ldr	r3, [r3, #0]
 8002524:	430a      	orrs	r2, r1
 8002526:	61da      	str	r2, [r3, #28]
 8002528:	e021      	b.n	800256e <HAL_TIM_PWM_ConfigChannel+0x172>
 800252a:	68fb      	ldr	r3, [r7, #12]
 800252c:	681b      	ldr	r3, [r3, #0]
 800252e:	68b9      	ldr	r1, [r7, #8]
 8002530:	4618      	mov	r0, r3
 8002532:	f000 faa1 	bl	8002a78 <TIM_OC4_SetConfig>
 8002536:	68fb      	ldr	r3, [r7, #12]
 8002538:	681b      	ldr	r3, [r3, #0]
 800253a:	69da      	ldr	r2, [r3, #28]
 800253c:	68fb      	ldr	r3, [r7, #12]
 800253e:	681b      	ldr	r3, [r3, #0]
 8002540:	f442 6200 	orr.w	r2, r2, #2048	; 0x800
 8002544:	61da      	str	r2, [r3, #28]
 8002546:	68fb      	ldr	r3, [r7, #12]
 8002548:	681b      	ldr	r3, [r3, #0]
 800254a:	69da      	ldr	r2, [r3, #28]
 800254c:	68fb      	ldr	r3, [r7, #12]
 800254e:	681b      	ldr	r3, [r3, #0]
 8002550:	f422 6280 	bic.w	r2, r2, #1024	; 0x400
 8002554:	61da      	str	r2, [r3, #28]
 8002556:	68fb      	ldr	r3, [r7, #12]
 8002558:	681b      	ldr	r3, [r3, #0]
 800255a:	69d9      	ldr	r1, [r3, #28]
 800255c:	68bb      	ldr	r3, [r7, #8]
 800255e:	691b      	ldr	r3, [r3, #16]
 8002560:	021a      	lsls	r2, r3, #8
 8002562:	68fb      	ldr	r3, [r7, #12]
 8002564:	681b      	ldr	r3, [r3, #0]
 8002566:	430a      	orrs	r2, r1
 8002568:	61da      	str	r2, [r3, #28]
 800256a:	e000      	b.n	800256e <HAL_TIM_PWM_ConfigChannel+0x172>
 800256c:	bf00      	nop
 800256e:	68fb      	ldr	r3, [r7, #12]
 8002570:	2201      	movs	r2, #1
 8002572:	f883 203d 	strb.w	r2, [r3, #61]	; 0x3d
 8002576:	68fb      	ldr	r3, [r7, #12]
 8002578:	2200      	movs	r2, #0
 800257a:	f883 203c 	strb.w	r2, [r3, #60]	; 0x3c
 800257e:	2300      	movs	r3, #0
 8002580:	4618      	mov	r0, r3
 8002582:	3710      	adds	r7, #16
 8002584:	46bd      	mov	sp, r7
 8002586:	bd80      	pop	{r7, pc}

08002588 <HAL_TIM_ConfigClockSource>:
 8002588:	b580      	push	{r7, lr}
 800258a:	b084      	sub	sp, #16
 800258c:	af00      	add	r7, sp, #0
 800258e:	6078      	str	r0, [r7, #4]
 8002590:	6039      	str	r1, [r7, #0]
 8002592:	687b      	ldr	r3, [r7, #4]
 8002594:	f893 303c 	ldrb.w	r3, [r3, #60]	; 0x3c
 8002598:	2b01      	cmp	r3, #1
 800259a:	d101      	bne.n	80025a0 <HAL_TIM_ConfigClockSource+0x18>
 800259c:	2302      	movs	r3, #2
 800259e:	e0a6      	b.n	80026ee <HAL_TIM_ConfigClockSource+0x166>
 80025a0:	687b      	ldr	r3, [r7, #4]
 80025a2:	2201      	movs	r2, #1
 80025a4:	f883 203c 	strb.w	r2, [r3, #60]	; 0x3c
 80025a8:	687b      	ldr	r3, [r7, #4]
 80025aa:	2202      	movs	r2, #2
 80025ac:	f883 203d 	strb.w	r2, [r3, #61]	; 0x3d
 80025b0:	687b      	ldr	r3, [r7, #4]
 80025b2:	681b      	ldr	r3, [r3, #0]
 80025b4:	689b      	ldr	r3, [r3, #8]
 80025b6:	60fb      	str	r3, [r7, #12]
 80025b8:	68fb      	ldr	r3, [r7, #12]
 80025ba:	f023 0377 	bic.w	r3, r3, #119	; 0x77
 80025be:	60fb      	str	r3, [r7, #12]
 80025c0:	68fb      	ldr	r3, [r7, #12]
 80025c2:	f423 437f 	bic.w	r3, r3, #65280	; 0xff00
 80025c6:	60fb      	str	r3, [r7, #12]
 80025c8:	687b      	ldr	r3, [r7, #4]
 80025ca:	681b      	ldr	r3, [r3, #0]
 80025cc:	68fa      	ldr	r2, [r7, #12]
 80025ce:	609a      	str	r2, [r3, #8]
 80025d0:	683b      	ldr	r3, [r7, #0]
 80025d2:	681b      	ldr	r3, [r3, #0]
 80025d4:	2b40      	cmp	r3, #64	; 0x40
 80025d6:	d067      	beq.n	80026a8 <HAL_TIM_ConfigClockSource+0x120>
 80025d8:	2b40      	cmp	r3, #64	; 0x40
 80025da:	d80b      	bhi.n	80025f4 <HAL_TIM_ConfigClockSource+0x6c>
 80025dc:	2b10      	cmp	r3, #16
 80025de:	d073      	beq.n	80026c8 <HAL_TIM_ConfigClockSource+0x140>
 80025e0:	2b10      	cmp	r3, #16
 80025e2:	d802      	bhi.n	80025ea <HAL_TIM_ConfigClockSource+0x62>
 80025e4:	2b00      	cmp	r3, #0
 80025e6:	d06f      	beq.n	80026c8 <HAL_TIM_ConfigClockSource+0x140>
 80025e8:	e078      	b.n	80026dc <HAL_TIM_ConfigClockSource+0x154>
 80025ea:	2b20      	cmp	r3, #32
 80025ec:	d06c      	beq.n	80026c8 <HAL_TIM_ConfigClockSource+0x140>
 80025ee:	2b30      	cmp	r3, #48	; 0x30
 80025f0:	d06a      	beq.n	80026c8 <HAL_TIM_ConfigClockSource+0x140>
 80025f2:	e073      	b.n	80026dc <HAL_TIM_ConfigClockSource+0x154>
 80025f4:	2b70      	cmp	r3, #112	; 0x70
 80025f6:	d00d      	beq.n	8002614 <HAL_TIM_ConfigClockSource+0x8c>
 80025f8:	2b70      	cmp	r3, #112	; 0x70
 80025fa:	d804      	bhi.n	8002606 <HAL_TIM_ConfigClockSource+0x7e>
 80025fc:	2b50      	cmp	r3, #80	; 0x50
 80025fe:	d033      	beq.n	8002668 <HAL_TIM_ConfigClockSource+0xe0>
 8002600:	2b60      	cmp	r3, #96	; 0x60
 8002602:	d041      	beq.n	8002688 <HAL_TIM_ConfigClockSource+0x100>
 8002604:	e06a      	b.n	80026dc <HAL_TIM_ConfigClockSource+0x154>
 8002606:	f5b3 5f80 	cmp.w	r3, #4096	; 0x1000
 800260a:	d066      	beq.n	80026da <HAL_TIM_ConfigClockSource+0x152>
 800260c:	f5b3 5f00 	cmp.w	r3, #8192	; 0x2000
 8002610:	d017      	beq.n	8002642 <HAL_TIM_ConfigClockSource+0xba>
 8002612:	e063      	b.n	80026dc <HAL_TIM_ConfigClockSource+0x154>
 8002614:	687b      	ldr	r3, [r7, #4]
 8002616:	6818      	ldr	r0, [r3, #0]
 8002618:	683b      	ldr	r3, [r7, #0]
 800261a:	6899      	ldr	r1, [r3, #8]
 800261c:	683b      	ldr	r3, [r7, #0]
 800261e:	685a      	ldr	r2, [r3, #4]
 8002620:	683b      	ldr	r3, [r7, #0]
 8002622:	68db      	ldr	r3, [r3, #12]
 8002624:	f000 faed 	bl	8002c02 <TIM_ETR_SetConfig>
 8002628:	687b      	ldr	r3, [r7, #4]
 800262a:	681b      	ldr	r3, [r3, #0]
 800262c:	689b      	ldr	r3, [r3, #8]
 800262e:	60fb      	str	r3, [r7, #12]
 8002630:	68fb      	ldr	r3, [r7, #12]
 8002632:	f043 0377 	orr.w	r3, r3, #119	; 0x77
 8002636:	60fb      	str	r3, [r7, #12]
 8002638:	687b      	ldr	r3, [r7, #4]
 800263a:	681b      	ldr	r3, [r3, #0]
 800263c:	68fa      	ldr	r2, [r7, #12]
 800263e:	609a      	str	r2, [r3, #8]
 8002640:	e04c      	b.n	80026dc <HAL_TIM_ConfigClockSource+0x154>
 8002642:	687b      	ldr	r3, [r7, #4]
 8002644:	6818      	ldr	r0, [r3, #0]
 8002646:	683b      	ldr	r3, [r7, #0]
 8002648:	6899      	ldr	r1, [r3, #8]
 800264a:	683b      	ldr	r3, [r7, #0]
 800264c:	685a      	ldr	r2, [r3, #4]
 800264e:	683b      	ldr	r3, [r7, #0]
 8002650:	68db      	ldr	r3, [r3, #12]
 8002652:	f000 fad6 	bl	8002c02 <TIM_ETR_SetConfig>
 8002656:	687b      	ldr	r3, [r7, #4]
 8002658:	681b      	ldr	r3, [r3, #0]
 800265a:	689a      	ldr	r2, [r3, #8]
 800265c:	687b      	ldr	r3, [r7, #4]
 800265e:	681b      	ldr	r3, [r3, #0]
 8002660:	f442 4280 	orr.w	r2, r2, #16384	; 0x4000
 8002664:	609a      	str	r2, [r3, #8]
 8002666:	e039      	b.n	80026dc <HAL_TIM_ConfigClockSource+0x154>
 8002668:	687b      	ldr	r3, [r7, #4]
 800266a:	6818      	ldr	r0, [r3, #0]
 800266c:	683b      	ldr	r3, [r7, #0]
 800266e:	6859      	ldr	r1, [r3, #4]
 8002670:	683b      	ldr	r3, [r7, #0]
 8002672:	68db      	ldr	r3, [r3, #12]
 8002674:	461a      	mov	r2, r3
 8002676:	f000 fa4d 	bl	8002b14 <TIM_TI1_ConfigInputStage>
 800267a:	687b      	ldr	r3, [r7, #4]
 800267c:	681b      	ldr	r3, [r3, #0]
 800267e:	2150      	movs	r1, #80	; 0x50
 8002680:	4618      	mov	r0, r3
 8002682:	f000 faa4 	bl	8002bce <TIM_ITRx_SetConfig>
 8002686:	e029      	b.n	80026dc <HAL_TIM_ConfigClockSource+0x154>
 8002688:	687b      	ldr	r3, [r7, #4]
 800268a:	6818      	ldr	r0, [r3, #0]
 800268c:	683b      	ldr	r3, [r7, #0]
 800268e:	6859      	ldr	r1, [r3, #4]
 8002690:	683b      	ldr	r3, [r7, #0]
 8002692:	68db      	ldr	r3, [r3, #12]
 8002694:	461a      	mov	r2, r3
 8002696:	f000 fa6b 	bl	8002b70 <TIM_TI2_ConfigInputStage>
 800269a:	687b      	ldr	r3, [r7, #4]
 800269c:	681b      	ldr	r3, [r3, #0]
 800269e:	2160      	movs	r1, #96	; 0x60
 80026a0:	4618      	mov	r0, r3
 80026a2:	f000 fa94 	bl	8002bce <TIM_ITRx_SetConfig>
 80026a6:	e019      	b.n	80026dc <HAL_TIM_ConfigClockSource+0x154>
 80026a8:	687b      	ldr	r3, [r7, #4]
 80026aa:	6818      	ldr	r0, [r3, #0]
 80026ac:	683b      	ldr	r3, [r7, #0]
 80026ae:	6859      	ldr	r1, [r3, #4]
 80026b0:	683b      	ldr	r3, [r7, #0]
 80026b2:	68db      	ldr	r3, [r3, #12]
 80026b4:	461a      	mov	r2, r3
 80026b6:	f000 fa2d 	bl	8002b14 <TIM_TI1_ConfigInputStage>
 80026ba:	687b      	ldr	r3, [r7, #4]
 80026bc:	681b      	ldr	r3, [r3, #0]
 80026be:	2140      	movs	r1, #64	; 0x40
 80026c0:	4618      	mov	r0, r3
 80026c2:	f000 fa84 	bl	8002bce <TIM_ITRx_SetConfig>
 80026c6:	e009      	b.n	80026dc <HAL_TIM_ConfigClockSource+0x154>
 80026c8:	687b      	ldr	r3, [r7, #4]
 80026ca:	681a      	ldr	r2, [r3, #0]
 80026cc:	683b      	ldr	r3, [r7, #0]
 80026ce:	681b      	ldr	r3, [r3, #0]
 80026d0:	4619      	mov	r1, r3
 80026d2:	4610      	mov	r0, r2
 80026d4:	f000 fa7b 	bl	8002bce <TIM_ITRx_SetConfig>
 80026d8:	e000      	b.n	80026dc <HAL_TIM_ConfigClockSource+0x154>
 80026da:	bf00      	nop
 80026dc:	687b      	ldr	r3, [r7, #4]
 80026de:	2201      	movs	r2, #1
 80026e0:	f883 203d 	strb.w	r2, [r3, #61]	; 0x3d
 80026e4:	687b      	ldr	r3, [r7, #4]
 80026e6:	2200      	movs	r2, #0
 80026e8:	f883 203c 	strb.w	r2, [r3, #60]	; 0x3c
 80026ec:	2300      	movs	r3, #0
 80026ee:	4618      	mov	r0, r3
 80026f0:	3710      	adds	r7, #16
 80026f2:	46bd      	mov	sp, r7
 80026f4:	bd80      	pop	{r7, pc}

080026f6 <HAL_TIM_OC_DelayElapsedCallback>:
 80026f6:	b480      	push	{r7}
 80026f8:	b083      	sub	sp, #12
 80026fa:	af00      	add	r7, sp, #0
 80026fc:	6078      	str	r0, [r7, #4]
 80026fe:	bf00      	nop
 8002700:	370c      	adds	r7, #12
 8002702:	46bd      	mov	sp, r7
 8002704:	bc80      	pop	{r7}
 8002706:	4770      	bx	lr

08002708 <HAL_TIM_IC_CaptureCallback>:
 8002708:	b480      	push	{r7}
 800270a:	b083      	sub	sp, #12
 800270c:	af00      	add	r7, sp, #0
 800270e:	6078      	str	r0, [r7, #4]
 8002710:	bf00      	nop
 8002712:	370c      	adds	r7, #12
 8002714:	46bd      	mov	sp, r7
 8002716:	bc80      	pop	{r7}
 8002718:	4770      	bx	lr

0800271a <HAL_TIM_PWM_PulseFinishedCallback>:
 800271a:	b480      	push	{r7}
 800271c:	b083      	sub	sp, #12
 800271e:	af00      	add	r7, sp, #0
 8002720:	6078      	str	r0, [r7, #4]
 8002722:	bf00      	nop
 8002724:	370c      	adds	r7, #12
 8002726:	46bd      	mov	sp, r7
 8002728:	bc80      	pop	{r7}
 800272a:	4770      	bx	lr

0800272c <HAL_TIM_TriggerCallback>:
 800272c:	b480      	push	{r7}
 800272e:	b083      	sub	sp, #12
 8002730:	af00      	add	r7, sp, #0
 8002732:	6078      	str	r0, [r7, #4]
 8002734:	bf00      	nop
 8002736:	370c      	adds	r7, #12
 8002738:	46bd      	mov	sp, r7
 800273a:	bc80      	pop	{r7}
 800273c:	4770      	bx	lr
	...

08002740 <TIM_Base_SetConfig>:
 8002740:	b480      	push	{r7}
 8002742:	b085      	sub	sp, #20
 8002744:	af00      	add	r7, sp, #0
 8002746:	6078      	str	r0, [r7, #4]
 8002748:	6039      	str	r1, [r7, #0]
 800274a:	687b      	ldr	r3, [r7, #4]
 800274c:	681b      	ldr	r3, [r3, #0]
 800274e:	60fb      	str	r3, [r7, #12]
 8002750:	687b      	ldr	r3, [r7, #4]
 8002752:	4a29      	ldr	r2, [pc, #164]	; (80027f8 <TIM_Base_SetConfig+0xb8>)
 8002754:	4293      	cmp	r3, r2
 8002756:	d00b      	beq.n	8002770 <TIM_Base_SetConfig+0x30>
 8002758:	687b      	ldr	r3, [r7, #4]
 800275a:	f1b3 4f80 	cmp.w	r3, #1073741824	; 0x40000000
 800275e:	d007      	beq.n	8002770 <TIM_Base_SetConfig+0x30>
 8002760:	687b      	ldr	r3, [r7, #4]
 8002762:	4a26      	ldr	r2, [pc, #152]	; (80027fc <TIM_Base_SetConfig+0xbc>)
 8002764:	4293      	cmp	r3, r2
 8002766:	d003      	beq.n	8002770 <TIM_Base_SetConfig+0x30>
 8002768:	687b      	ldr	r3, [r7, #4]
 800276a:	4a25      	ldr	r2, [pc, #148]	; (8002800 <TIM_Base_SetConfig+0xc0>)
 800276c:	4293      	cmp	r3, r2
 800276e:	d108      	bne.n	8002782 <TIM_Base_SetConfig+0x42>
 8002770:	68fb      	ldr	r3, [r7, #12]
 8002772:	f023 0370 	bic.w	r3, r3, #112	; 0x70
 8002776:	60fb      	str	r3, [r7, #12]
 8002778:	683b      	ldr	r3, [r7, #0]
 800277a:	685b      	ldr	r3, [r3, #4]
 800277c:	68fa      	ldr	r2, [r7, #12]
 800277e:	4313      	orrs	r3, r2
 8002780:	60fb      	str	r3, [r7, #12]
 8002782:	687b      	ldr	r3, [r7, #4]
 8002784:	4a1c      	ldr	r2, [pc, #112]	; (80027f8 <TIM_Base_SetConfig+0xb8>)
 8002786:	4293      	cmp	r3, r2
 8002788:	d00b      	beq.n	80027a2 <TIM_Base_SetConfig+0x62>
 800278a:	687b      	ldr	r3, [r7, #4]
 800278c:	f1b3 4f80 	cmp.w	r3, #1073741824	; 0x40000000
 8002790:	d007      	beq.n	80027a2 <TIM_Base_SetConfig+0x62>
 8002792:	687b      	ldr	r3, [r7, #4]
 8002794:	4a19      	ldr	r2, [pc, #100]	; (80027fc <TIM_Base_SetConfig+0xbc>)
 8002796:	4293      	cmp	r3, r2
 8002798:	d003      	beq.n	80027a2 <TIM_Base_SetConfig+0x62>
 800279a:	687b      	ldr	r3, [r7, #4]
 800279c:	4a18      	ldr	r2, [pc, #96]	; (8002800 <TIM_Base_SetConfig+0xc0>)
 800279e:	4293      	cmp	r3, r2
 80027a0:	d108      	bne.n	80027b4 <TIM_Base_SetConfig+0x74>
 80027a2:	68fb      	ldr	r3, [r7, #12]
 80027a4:	f423 7340 	bic.w	r3, r3, #768	; 0x300
 80027a8:	60fb      	str	r3, [r7, #12]
 80027aa:	683b      	ldr	r3, [r7, #0]
 80027ac:	68db      	ldr	r3, [r3, #12]
 80027ae:	68fa      	ldr	r2, [r7, #12]
 80027b0:	4313      	orrs	r3, r2
 80027b2:	60fb      	str	r3, [r7, #12]
 80027b4:	68fb      	ldr	r3, [r7, #12]
 80027b6:	f023 0280 	bic.w	r2, r3, #128	; 0x80
 80027ba:	683b      	ldr	r3, [r7, #0]
 80027bc:	695b      	ldr	r3, [r3, #20]
 80027be:	4313      	orrs	r3, r2
 80027c0:	60fb      	str	r3, [r7, #12]
 80027c2:	687b      	ldr	r3, [r7, #4]
 80027c4:	68fa      	ldr	r2, [r7, #12]
 80027c6:	601a      	str	r2, [r3, #0]
 80027c8:	683b      	ldr	r3, [r7, #0]
 80027ca:	689a      	ldr	r2, [r3, #8]
 80027cc:	687b      	ldr	r3, [r7, #4]
 80027ce:	62da      	str	r2, [r3, #44]	; 0x2c
 80027d0:	683b      	ldr	r3, [r7, #0]
 80027d2:	681a      	ldr	r2, [r3, #0]
 80027d4:	687b      	ldr	r3, [r7, #4]
 80027d6:	629a      	str	r2, [r3, #40]	; 0x28
 80027d8:	687b      	ldr	r3, [r7, #4]
 80027da:	4a07      	ldr	r2, [pc, #28]	; (80027f8 <TIM_Base_SetConfig+0xb8>)
 80027dc:	4293      	cmp	r3, r2
 80027de:	d103      	bne.n	80027e8 <TIM_Base_SetConfig+0xa8>
 80027e0:	683b      	ldr	r3, [r7, #0]
 80027e2:	691a      	ldr	r2, [r3, #16]
 80027e4:	687b      	ldr	r3, [r7, #4]
 80027e6:	631a      	str	r2, [r3, #48]	; 0x30
 80027e8:	687b      	ldr	r3, [r7, #4]
 80027ea:	2201      	movs	r2, #1
 80027ec:	615a      	str	r2, [r3, #20]
 80027ee:	bf00      	nop
 80027f0:	3714      	adds	r7, #20
 80027f2:	46bd      	mov	sp, r7
 80027f4:	bc80      	pop	{r7}
 80027f6:	4770      	bx	lr
 80027f8:	40012c00 	.word	0x40012c00
 80027fc:	40000400 	.word	0x40000400
 8002800:	40000800 	.word	0x40000800

08002804 <TIM_OC1_SetConfig>:
 8002804:	b480      	push	{r7}
 8002806:	b087      	sub	sp, #28
 8002808:	af00      	add	r7, sp, #0
 800280a:	6078      	str	r0, [r7, #4]
 800280c:	6039      	str	r1, [r7, #0]
 800280e:	687b      	ldr	r3, [r7, #4]
 8002810:	6a1b      	ldr	r3, [r3, #32]
 8002812:	f023 0201 	bic.w	r2, r3, #1
 8002816:	687b      	ldr	r3, [r7, #4]
 8002818:	621a      	str	r2, [r3, #32]
 800281a:	687b      	ldr	r3, [r7, #4]
 800281c:	6a1b      	ldr	r3, [r3, #32]
 800281e:	617b      	str	r3, [r7, #20]
 8002820:	687b      	ldr	r3, [r7, #4]
 8002822:	685b      	ldr	r3, [r3, #4]
 8002824:	613b      	str	r3, [r7, #16]
 8002826:	687b      	ldr	r3, [r7, #4]
 8002828:	699b      	ldr	r3, [r3, #24]
 800282a:	60fb      	str	r3, [r7, #12]
 800282c:	68fb      	ldr	r3, [r7, #12]
 800282e:	f023 0370 	bic.w	r3, r3, #112	; 0x70
 8002832:	60fb      	str	r3, [r7, #12]
 8002834:	68fb      	ldr	r3, [r7, #12]
 8002836:	f023 0303 	bic.w	r3, r3, #3
 800283a:	60fb      	str	r3, [r7, #12]
 800283c:	683b      	ldr	r3, [r7, #0]
 800283e:	681b      	ldr	r3, [r3, #0]
 8002840:	68fa      	ldr	r2, [r7, #12]
 8002842:	4313      	orrs	r3, r2
 8002844:	60fb      	str	r3, [r7, #12]
 8002846:	697b      	ldr	r3, [r7, #20]
 8002848:	f023 0302 	bic.w	r3, r3, #2
 800284c:	617b      	str	r3, [r7, #20]
 800284e:	683b      	ldr	r3, [r7, #0]
 8002850:	689b      	ldr	r3, [r3, #8]
 8002852:	697a      	ldr	r2, [r7, #20]
 8002854:	4313      	orrs	r3, r2
 8002856:	617b      	str	r3, [r7, #20]
 8002858:	687b      	ldr	r3, [r7, #4]
 800285a:	4a1c      	ldr	r2, [pc, #112]	; (80028cc <TIM_OC1_SetConfig+0xc8>)
 800285c:	4293      	cmp	r3, r2
 800285e:	d10c      	bne.n	800287a <TIM_OC1_SetConfig+0x76>
 8002860:	697b      	ldr	r3, [r7, #20]
 8002862:	f023 0308 	bic.w	r3, r3, #8
 8002866:	617b      	str	r3, [r7, #20]
 8002868:	683b      	ldr	r3, [r7, #0]
 800286a:	68db      	ldr	r3, [r3, #12]
 800286c:	697a      	ldr	r2, [r7, #20]
 800286e:	4313      	orrs	r3, r2
 8002870:	617b      	str	r3, [r7, #20]
 8002872:	697b      	ldr	r3, [r7, #20]
 8002874:	f023 0304 	bic.w	r3, r3, #4
 8002878:	617b      	str	r3, [r7, #20]
 800287a:	687b      	ldr	r3, [r7, #4]
 800287c:	4a13      	ldr	r2, [pc, #76]	; (80028cc <TIM_OC1_SetConfig+0xc8>)
 800287e:	4293      	cmp	r3, r2
 8002880:	d111      	bne.n	80028a6 <TIM_OC1_SetConfig+0xa2>
 8002882:	693b      	ldr	r3, [r7, #16]
 8002884:	f423 7380 	bic.w	r3, r3, #256	; 0x100
 8002888:	613b      	str	r3, [r7, #16]
 800288a:	693b      	ldr	r3, [r7, #16]
 800288c:	f423 7300 	bic.w	r3, r3, #512	; 0x200
 8002890:	613b      	str	r3, [r7, #16]
 8002892:	683b      	ldr	r3, [r7, #0]
 8002894:	695b      	ldr	r3, [r3, #20]
 8002896:	693a      	ldr	r2, [r7, #16]
 8002898:	4313      	orrs	r3, r2
 800289a:	613b      	str	r3, [r7, #16]
 800289c:	683b      	ldr	r3, [r7, #0]
 800289e:	699b      	ldr	r3, [r3, #24]
 80028a0:	693a      	ldr	r2, [r7, #16]
 80028a2:	4313      	orrs	r3, r2
 80028a4:	613b      	str	r3, [r7, #16]
 80028a6:	687b      	ldr	r3, [r7, #4]
 80028a8:	693a      	ldr	r2, [r7, #16]
 80028aa:	605a      	str	r2, [r3, #4]
 80028ac:	687b      	ldr	r3, [r7, #4]
 80028ae:	68fa      	ldr	r2, [r7, #12]
 80028b0:	619a      	str	r2, [r3, #24]
 80028b2:	683b      	ldr	r3, [r7, #0]
 80028b4:	685a      	ldr	r2, [r3, #4]
 80028b6:	687b      	ldr	r3, [r7, #4]
 80028b8:	635a      	str	r2, [r3, #52]	; 0x34
 80028ba:	687b      	ldr	r3, [r7, #4]
 80028bc:	697a      	ldr	r2, [r7, #20]
 80028be:	621a      	str	r2, [r3, #32]
 80028c0:	bf00      	nop
 80028c2:	371c      	adds	r7, #28
 80028c4:	46bd      	mov	sp, r7
 80028c6:	bc80      	pop	{r7}
 80028c8:	4770      	bx	lr
 80028ca:	bf00      	nop
 80028cc:	40012c00 	.word	0x40012c00

080028d0 <TIM_OC2_SetConfig>:
 80028d0:	b480      	push	{r7}
 80028d2:	b087      	sub	sp, #28
 80028d4:	af00      	add	r7, sp, #0
 80028d6:	6078      	str	r0, [r7, #4]
 80028d8:	6039      	str	r1, [r7, #0]
 80028da:	687b      	ldr	r3, [r7, #4]
 80028dc:	6a1b      	ldr	r3, [r3, #32]
 80028de:	f023 0210 	bic.w	r2, r3, #16
 80028e2:	687b      	ldr	r3, [r7, #4]
 80028e4:	621a      	str	r2, [r3, #32]
 80028e6:	687b      	ldr	r3, [r7, #4]
 80028e8:	6a1b      	ldr	r3, [r3, #32]
 80028ea:	617b      	str	r3, [r7, #20]
 80028ec:	687b      	ldr	r3, [r7, #4]
 80028ee:	685b      	ldr	r3, [r3, #4]
 80028f0:	613b      	str	r3, [r7, #16]
 80028f2:	687b      	ldr	r3, [r7, #4]
 80028f4:	699b      	ldr	r3, [r3, #24]
 80028f6:	60fb      	str	r3, [r7, #12]
 80028f8:	68fb      	ldr	r3, [r7, #12]
 80028fa:	f423 43e0 	bic.w	r3, r3, #28672	; 0x7000
 80028fe:	60fb      	str	r3, [r7, #12]
 8002900:	68fb      	ldr	r3, [r7, #12]
 8002902:	f423 7340 	bic.w	r3, r3, #768	; 0x300
 8002906:	60fb      	str	r3, [r7, #12]
 8002908:	683b      	ldr	r3, [r7, #0]
 800290a:	681b      	ldr	r3, [r3, #0]
 800290c:	021b      	lsls	r3, r3, #8
 800290e:	68fa      	ldr	r2, [r7, #12]
 8002910:	4313      	orrs	r3, r2
 8002912:	60fb      	str	r3, [r7, #12]
 8002914:	697b      	ldr	r3, [r7, #20]
 8002916:	f023 0320 	bic.w	r3, r3, #32
 800291a:	617b      	str	r3, [r7, #20]
 800291c:	683b      	ldr	r3, [r7, #0]
 800291e:	689b      	ldr	r3, [r3, #8]
 8002920:	011b      	lsls	r3, r3, #4
 8002922:	697a      	ldr	r2, [r7, #20]
 8002924:	4313      	orrs	r3, r2
 8002926:	617b      	str	r3, [r7, #20]
 8002928:	687b      	ldr	r3, [r7, #4]
 800292a:	4a1d      	ldr	r2, [pc, #116]	; (80029a0 <TIM_OC2_SetConfig+0xd0>)
 800292c:	4293      	cmp	r3, r2
 800292e:	d10d      	bne.n	800294c <TIM_OC2_SetConfig+0x7c>
 8002930:	697b      	ldr	r3, [r7, #20]
 8002932:	f023 0380 	bic.w	r3, r3, #128	; 0x80
 8002936:	617b      	str	r3, [r7, #20]
 8002938:	683b      	ldr	r3, [r7, #0]
 800293a:	68db      	ldr	r3, [r3, #12]
 800293c:	011b      	lsls	r3, r3, #4
 800293e:	697a      	ldr	r2, [r7, #20]
 8002940:	4313      	orrs	r3, r2
 8002942:	617b      	str	r3, [r7, #20]
 8002944:	697b      	ldr	r3, [r7, #20]
 8002946:	f023 0340 	bic.w	r3, r3, #64	; 0x40
 800294a:	617b      	str	r3, [r7, #20]
 800294c:	687b      	ldr	r3, [r7, #4]
 800294e:	4a14      	ldr	r2, [pc, #80]	; (80029a0 <TIM_OC2_SetConfig+0xd0>)
 8002950:	4293      	cmp	r3, r2
 8002952:	d113      	bne.n	800297c <TIM_OC2_SetConfig+0xac>
 8002954:	693b      	ldr	r3, [r7, #16]
 8002956:	f423 6380 	bic.w	r3, r3, #1024	; 0x400
 800295a:	613b      	str	r3, [r7, #16]
 800295c:	693b      	ldr	r3, [r7, #16]
 800295e:	f423 6300 	bic.w	r3, r3, #2048	; 0x800
 8002962:	613b      	str	r3, [r7, #16]
 8002964:	683b      	ldr	r3, [r7, #0]
 8002966:	695b      	ldr	r3, [r3, #20]
 8002968:	009b      	lsls	r3, r3, #2
 800296a:	693a      	ldr	r2, [r7, #16]
 800296c:	4313      	orrs	r3, r2
 800296e:	613b      	str	r3, [r7, #16]
 8002970:	683b      	ldr	r3, [r7, #0]
 8002972:	699b      	ldr	r3, [r3, #24]
 8002974:	009b      	lsls	r3, r3, #2
 8002976:	693a      	ldr	r2, [r7, #16]
 8002978:	4313      	orrs	r3, r2
 800297a:	613b      	str	r3, [r7, #16]
 800297c:	687b      	ldr	r3, [r7, #4]
 800297e:	693a      	ldr	r2, [r7, #16]
 8002980:	605a      	str	r2, [r3, #4]
 8002982:	687b      	ldr	r3, [r7, #4]
 8002984:	68fa      	ldr	r2, [r7, #12]
 8002986:	619a      	str	r2, [r3, #24]
 8002988:	683b      	ldr	r3, [r7, #0]
 800298a:	685a      	ldr	r2, [r3, #4]
 800298c:	687b      	ldr	r3, [r7, #4]
 800298e:	639a      	str	r2, [r3, #56]	; 0x38
 8002990:	687b      	ldr	r3, [r7, #4]
 8002992:	697a      	ldr	r2, [r7, #20]
 8002994:	621a      	str	r2, [r3, #32]
 8002996:	bf00      	nop
 8002998:	371c      	adds	r7, #28
 800299a:	46bd      	mov	sp, r7
 800299c:	bc80      	pop	{r7}
 800299e:	4770      	bx	lr
 80029a0:	40012c00 	.word	0x40012c00

080029a4 <TIM_OC3_SetConfig>:
 80029a4:	b480      	push	{r7}
 80029a6:	b087      	sub	sp, #28
 80029a8:	af00      	add	r7, sp, #0
 80029aa:	6078      	str	r0, [r7, #4]
 80029ac:	6039      	str	r1, [r7, #0]
 80029ae:	687b      	ldr	r3, [r7, #4]
 80029b0:	6a1b      	ldr	r3, [r3, #32]
 80029b2:	f423 7280 	bic.w	r2, r3, #256	; 0x100
 80029b6:	687b      	ldr	r3, [r7, #4]
 80029b8:	621a      	str	r2, [r3, #32]
 80029ba:	687b      	ldr	r3, [r7, #4]
 80029bc:	6a1b      	ldr	r3, [r3, #32]
 80029be:	617b      	str	r3, [r7, #20]
 80029c0:	687b      	ldr	r3, [r7, #4]
 80029c2:	685b      	ldr	r3, [r3, #4]
 80029c4:	613b      	str	r3, [r7, #16]
 80029c6:	687b      	ldr	r3, [r7, #4]
 80029c8:	69db      	ldr	r3, [r3, #28]
 80029ca:	60fb      	str	r3, [r7, #12]
 80029cc:	68fb      	ldr	r3, [r7, #12]
 80029ce:	f023 0370 	bic.w	r3, r3, #112	; 0x70
 80029d2:	60fb      	str	r3, [r7, #12]
 80029d4:	68fb      	ldr	r3, [r7, #12]
 80029d6:	f023 0303 	bic.w	r3, r3, #3
 80029da:	60fb      	str	r3, [r7, #12]
 80029dc:	683b      	ldr	r3, [r7, #0]
 80029de:	681b      	ldr	r3, [r3, #0]
 80029e0:	68fa      	ldr	r2, [r7, #12]
 80029e2:	4313      	orrs	r3, r2
 80029e4:	60fb      	str	r3, [r7, #12]
 80029e6:	697b      	ldr	r3, [r7, #20]
 80029e8:	f423 7300 	bic.w	r3, r3, #512	; 0x200
 80029ec:	617b      	str	r3, [r7, #20]
 80029ee:	683b      	ldr	r3, [r7, #0]
 80029f0:	689b      	ldr	r3, [r3, #8]
 80029f2:	021b      	lsls	r3, r3, #8
 80029f4:	697a      	ldr	r2, [r7, #20]
 80029f6:	4313      	orrs	r3, r2
 80029f8:	617b      	str	r3, [r7, #20]
 80029fa:	687b      	ldr	r3, [r7, #4]
 80029fc:	4a1d      	ldr	r2, [pc, #116]	; (8002a74 <TIM_OC3_SetConfig+0xd0>)
 80029fe:	4293      	cmp	r3, r2
 8002a00:	d10d      	bne.n	8002a1e <TIM_OC3_SetConfig+0x7a>
 8002a02:	697b      	ldr	r3, [r7, #20]
 8002a04:	f423 6300 	bic.w	r3, r3, #2048	; 0x800
 8002a08:	617b      	str	r3, [r7, #20]
 8002a0a:	683b      	ldr	r3, [r7, #0]
 8002a0c:	68db      	ldr	r3, [r3, #12]
 8002a0e:	021b      	lsls	r3, r3, #8
 8002a10:	697a      	ldr	r2, [r7, #20]
 8002a12:	4313      	orrs	r3, r2
 8002a14:	617b      	str	r3, [r7, #20]
 8002a16:	697b      	ldr	r3, [r7, #20]
 8002a18:	f423 6380 	bic.w	r3, r3, #1024	; 0x400
 8002a1c:	617b      	str	r3, [r7, #20]
 8002a1e:	687b      	ldr	r3, [r7, #4]
 8002a20:	4a14      	ldr	r2, [pc, #80]	; (8002a74 <TIM_OC3_SetConfig+0xd0>)
 8002a22:	4293      	cmp	r3, r2
 8002a24:	d113      	bne.n	8002a4e <TIM_OC3_SetConfig+0xaa>
 8002a26:	693b      	ldr	r3, [r7, #16]
 8002a28:	f423 5380 	bic.w	r3, r3, #4096	; 0x1000
 8002a2c:	613b      	str	r3, [r7, #16]
 8002a2e:	693b      	ldr	r3, [r7, #16]
 8002a30:	f423 5300 	bic.w	r3, r3, #8192	; 0x2000
 8002a34:	613b      	str	r3, [r7, #16]
 8002a36:	683b      	ldr	r3, [r7, #0]
 8002a38:	695b      	ldr	r3, [r3, #20]
 8002a3a:	011b      	lsls	r3, r3, #4
 8002a3c:	693a      	ldr	r2, [r7, #16]
 8002a3e:	4313      	orrs	r3, r2
 8002a40:	613b      	str	r3, [r7, #16]
 8002a42:	683b      	ldr	r3, [r7, #0]
 8002a44:	699b      	ldr	r3, [r3, #24]
 8002a46:	011b      	lsls	r3, r3, #4
 8002a48:	693a      	ldr	r2, [r7, #16]
 8002a4a:	4313      	orrs	r3, r2
 8002a4c:	613b      	str	r3, [r7, #16]
 8002a4e:	687b      	ldr	r3, [r7, #4]
 8002a50:	693a      	ldr	r2, [r7, #16]
 8002a52:	605a      	str	r2, [r3, #4]
 8002a54:	687b      	ldr	r3, [r7, #4]
 8002a56:	68fa      	ldr	r2, [r7, #12]
 8002a58:	61da      	str	r2, [r3, #28]
 8002a5a:	683b      	ldr	r3, [r7, #0]
 8002a5c:	685a      	ldr	r2, [r3, #4]
 8002a5e:	687b      	ldr	r3, [r7, #4]
 8002a60:	63da      	str	r2, [r3, #60]	; 0x3c
 8002a62:	687b      	ldr	r3, [r7, #4]
 8002a64:	697a      	ldr	r2, [r7, #20]
 8002a66:	621a      	str	r2, [r3, #32]
 8002a68:	bf00      	nop
 8002a6a:	371c      	adds	r7, #28
 8002a6c:	46bd      	mov	sp, r7
 8002a6e:	bc80      	pop	{r7}
 8002a70:	4770      	bx	lr
 8002a72:	bf00      	nop
 8002a74:	40012c00 	.word	0x40012c00

08002a78 <TIM_OC4_SetConfig>:
 8002a78:	b480      	push	{r7}
 8002a7a:	b087      	sub	sp, #28
 8002a7c:	af00      	add	r7, sp, #0
 8002a7e:	6078      	str	r0, [r7, #4]
 8002a80:	6039      	str	r1, [r7, #0]
 8002a82:	687b      	ldr	r3, [r7, #4]
 8002a84:	6a1b      	ldr	r3, [r3, #32]
 8002a86:	f423 5280 	bic.w	r2, r3, #4096	; 0x1000
 8002a8a:	687b      	ldr	r3, [r7, #4]
 8002a8c:	621a      	str	r2, [r3, #32]
 8002a8e:	687b      	ldr	r3, [r7, #4]
 8002a90:	6a1b      	ldr	r3, [r3, #32]
 8002a92:	613b      	str	r3, [r7, #16]
 8002a94:	687b      	ldr	r3, [r7, #4]
 8002a96:	685b      	ldr	r3, [r3, #4]
 8002a98:	617b      	str	r3, [r7, #20]
 8002a9a:	687b      	ldr	r3, [r7, #4]
 8002a9c:	69db      	ldr	r3, [r3, #28]
 8002a9e:	60fb      	str	r3, [r7, #12]
 8002aa0:	68fb      	ldr	r3, [r7, #12]
 8002aa2:	f423 43e0 	bic.w	r3, r3, #28672	; 0x7000
 8002aa6:	60fb      	str	r3, [r7, #12]
 8002aa8:	68fb      	ldr	r3, [r7, #12]
 8002aaa:	f423 7340 	bic.w	r3, r3, #768	; 0x300
 8002aae:	60fb      	str	r3, [r7, #12]
 8002ab0:	683b      	ldr	r3, [r7, #0]
 8002ab2:	681b      	ldr	r3, [r3, #0]
 8002ab4:	021b      	lsls	r3, r3, #8
 8002ab6:	68fa      	ldr	r2, [r7, #12]
 8002ab8:	4313      	orrs	r3, r2
 8002aba:	60fb      	str	r3, [r7, #12]
 8002abc:	693b      	ldr	r3, [r7, #16]
 8002abe:	f423 5300 	bic.w	r3, r3, #8192	; 0x2000
 8002ac2:	613b      	str	r3, [r7, #16]
 8002ac4:	683b      	ldr	r3, [r7, #0]
 8002ac6:	689b      	ldr	r3, [r3, #8]
 8002ac8:	031b      	lsls	r3, r3, #12
 8002aca:	693a      	ldr	r2, [r7, #16]
 8002acc:	4313      	orrs	r3, r2
 8002ace:	613b      	str	r3, [r7, #16]
 8002ad0:	687b      	ldr	r3, [r7, #4]
 8002ad2:	4a0f      	ldr	r2, [pc, #60]	; (8002b10 <TIM_OC4_SetConfig+0x98>)
 8002ad4:	4293      	cmp	r3, r2
 8002ad6:	d109      	bne.n	8002aec <TIM_OC4_SetConfig+0x74>
 8002ad8:	697b      	ldr	r3, [r7, #20]
 8002ada:	f423 4380 	bic.w	r3, r3, #16384	; 0x4000
 8002ade:	617b      	str	r3, [r7, #20]
 8002ae0:	683b      	ldr	r3, [r7, #0]
 8002ae2:	695b      	ldr	r3, [r3, #20]
 8002ae4:	019b      	lsls	r3, r3, #6
 8002ae6:	697a      	ldr	r2, [r7, #20]
 8002ae8:	4313      	orrs	r3, r2
 8002aea:	617b      	str	r3, [r7, #20]
 8002aec:	687b      	ldr	r3, [r7, #4]
 8002aee:	697a      	ldr	r2, [r7, #20]
 8002af0:	605a      	str	r2, [r3, #4]
 8002af2:	687b      	ldr	r3, [r7, #4]
 8002af4:	68fa      	ldr	r2, [r7, #12]
 8002af6:	61da      	str	r2, [r3, #28]
 8002af8:	683b      	ldr	r3, [r7, #0]
 8002afa:	685a      	ldr	r2, [r3, #4]
 8002afc:	687b      	ldr	r3, [r7, #4]
 8002afe:	641a      	str	r2, [r3, #64]	; 0x40
 8002b00:	687b      	ldr	r3, [r7, #4]
 8002b02:	693a      	ldr	r2, [r7, #16]
 8002b04:	621a      	str	r2, [r3, #32]
 8002b06:	bf00      	nop
 8002b08:	371c      	adds	r7, #28
 8002b0a:	46bd      	mov	sp, r7
 8002b0c:	bc80      	pop	{r7}
 8002b0e:	4770      	bx	lr
 8002b10:	40012c00 	.word	0x40012c00

08002b14 <TIM_TI1_ConfigInputStage>:
 8002b14:	b480      	push	{r7}
 8002b16:	b087      	sub	sp, #28
 8002b18:	af00      	add	r7, sp, #0
 8002b1a:	60f8      	str	r0, [r7, #12]
 8002b1c:	60b9      	str	r1, [r7, #8]
 8002b1e:	607a      	str	r2, [r7, #4]
 8002b20:	68fb      	ldr	r3, [r7, #12]
 8002b22:	6a1b      	ldr	r3, [r3, #32]
 8002b24:	617b      	str	r3, [r7, #20]
 8002b26:	68fb      	ldr	r3, [r7, #12]
 8002b28:	6a1b      	ldr	r3, [r3, #32]
 8002b2a:	f023 0201 	bic.w	r2, r3, #1
 8002b2e:	68fb      	ldr	r3, [r7, #12]
 8002b30:	621a      	str	r2, [r3, #32]
 8002b32:	68fb      	ldr	r3, [r7, #12]
 8002b34:	699b      	ldr	r3, [r3, #24]
 8002b36:	613b      	str	r3, [r7, #16]
 8002b38:	693b      	ldr	r3, [r7, #16]
 8002b3a:	f023 03f0 	bic.w	r3, r3, #240	; 0xf0
 8002b3e:	613b      	str	r3, [r7, #16]
 8002b40:	687b      	ldr	r3, [r7, #4]
 8002b42:	011b      	lsls	r3, r3, #4
 8002b44:	693a      	ldr	r2, [r7, #16]
 8002b46:	4313      	orrs	r3, r2
 8002b48:	613b      	str	r3, [r7, #16]
 8002b4a:	697b      	ldr	r3, [r7, #20]
 8002b4c:	f023 030a 	bic.w	r3, r3, #10
 8002b50:	617b      	str	r3, [r7, #20]
 8002b52:	697a      	ldr	r2, [r7, #20]
 8002b54:	68bb      	ldr	r3, [r7, #8]
 8002b56:	4313      	orrs	r3, r2
 8002b58:	617b      	str	r3, [r7, #20]
 8002b5a:	68fb      	ldr	r3, [r7, #12]
 8002b5c:	693a      	ldr	r2, [r7, #16]
 8002b5e:	619a      	str	r2, [r3, #24]
 8002b60:	68fb      	ldr	r3, [r7, #12]
 8002b62:	697a      	ldr	r2, [r7, #20]
 8002b64:	621a      	str	r2, [r3, #32]
 8002b66:	bf00      	nop
 8002b68:	371c      	adds	r7, #28
 8002b6a:	46bd      	mov	sp, r7
 8002b6c:	bc80      	pop	{r7}
 8002b6e:	4770      	bx	lr

08002b70 <TIM_TI2_ConfigInputStage>:
 8002b70:	b480      	push	{r7}
 8002b72:	b087      	sub	sp, #28
 8002b74:	af00      	add	r7, sp, #0
 8002b76:	60f8      	str	r0, [r7, #12]
 8002b78:	60b9      	str	r1, [r7, #8]
 8002b7a:	607a      	str	r2, [r7, #4]
 8002b7c:	68fb      	ldr	r3, [r7, #12]
 8002b7e:	6a1b      	ldr	r3, [r3, #32]
 8002b80:	f023 0210 	bic.w	r2, r3, #16
 8002b84:	68fb      	ldr	r3, [r7, #12]
 8002b86:	621a      	str	r2, [r3, #32]
 8002b88:	68fb      	ldr	r3, [r7, #12]
 8002b8a:	699b      	ldr	r3, [r3, #24]
 8002b8c:	617b      	str	r3, [r7, #20]
 8002b8e:	68fb      	ldr	r3, [r7, #12]
 8002b90:	6a1b      	ldr	r3, [r3, #32]
 8002b92:	613b      	str	r3, [r7, #16]
 8002b94:	697b      	ldr	r3, [r7, #20]
 8002b96:	f423 4370 	bic.w	r3, r3, #61440	; 0xf000
 8002b9a:	617b      	str	r3, [r7, #20]
 8002b9c:	687b      	ldr	r3, [r7, #4]
 8002b9e:	031b      	lsls	r3, r3, #12
 8002ba0:	697a      	ldr	r2, [r7, #20]
 8002ba2:	4313      	orrs	r3, r2
 8002ba4:	617b      	str	r3, [r7, #20]
 8002ba6:	693b      	ldr	r3, [r7, #16]
 8002ba8:	f023 03a0 	bic.w	r3, r3, #160	; 0xa0
 8002bac:	613b      	str	r3, [r7, #16]
 8002bae:	68bb      	ldr	r3, [r7, #8]
 8002bb0:	011b      	lsls	r3, r3, #4
 8002bb2:	693a      	ldr	r2, [r7, #16]
 8002bb4:	4313      	orrs	r3, r2
 8002bb6:	613b      	str	r3, [r7, #16]
 8002bb8:	68fb      	ldr	r3, [r7, #12]
 8002bba:	697a      	ldr	r2, [r7, #20]
 8002bbc:	619a      	str	r2, [r3, #24]
 8002bbe:	68fb      	ldr	r3, [r7, #12]
 8002bc0:	693a      	ldr	r2, [r7, #16]
 8002bc2:	621a      	str	r2, [r3, #32]
 8002bc4:	bf00      	nop
 8002bc6:	371c      	adds	r7, #28
 8002bc8:	46bd      	mov	sp, r7
 8002bca:	bc80      	pop	{r7}
 8002bcc:	4770      	bx	lr

08002bce <TIM_ITRx_SetConfig>:
 8002bce:	b480      	push	{r7}
 8002bd0:	b085      	sub	sp, #20
 8002bd2:	af00      	add	r7, sp, #0
 8002bd4:	6078      	str	r0, [r7, #4]
 8002bd6:	6039      	str	r1, [r7, #0]
 8002bd8:	687b      	ldr	r3, [r7, #4]
 8002bda:	689b      	ldr	r3, [r3, #8]
 8002bdc:	60fb      	str	r3, [r7, #12]
 8002bde:	68fb      	ldr	r3, [r7, #12]
 8002be0:	f023 0370 	bic.w	r3, r3, #112	; 0x70
 8002be4:	60fb      	str	r3, [r7, #12]
 8002be6:	683a      	ldr	r2, [r7, #0]
 8002be8:	68fb      	ldr	r3, [r7, #12]
 8002bea:	4313      	orrs	r3, r2
 8002bec:	f043 0307 	orr.w	r3, r3, #7
 8002bf0:	60fb      	str	r3, [r7, #12]
 8002bf2:	687b      	ldr	r3, [r7, #4]
 8002bf4:	68fa      	ldr	r2, [r7, #12]
 8002bf6:	609a      	str	r2, [r3, #8]
 8002bf8:	bf00      	nop
 8002bfa:	3714      	adds	r7, #20
 8002bfc:	46bd      	mov	sp, r7
 8002bfe:	bc80      	pop	{r7}
 8002c00:	4770      	bx	lr

08002c02 <TIM_ETR_SetConfig>:
 8002c02:	b480      	push	{r7}
 8002c04:	b087      	sub	sp, #28
 8002c06:	af00      	add	r7, sp, #0
 8002c08:	60f8      	str	r0, [r7, #12]
 8002c0a:	60b9      	str	r1, [r7, #8]
 8002c0c:	607a      	str	r2, [r7, #4]
 8002c0e:	603b      	str	r3, [r7, #0]
 8002c10:	68fb      	ldr	r3, [r7, #12]
 8002c12:	689b      	ldr	r3, [r3, #8]
 8002c14:	617b      	str	r3, [r7, #20]
 8002c16:	697b      	ldr	r3, [r7, #20]
 8002c18:	f423 437f 	bic.w	r3, r3, #65280	; 0xff00
 8002c1c:	617b      	str	r3, [r7, #20]
 8002c1e:	683b      	ldr	r3, [r7, #0]
 8002c20:	021a      	lsls	r2, r3, #8
 8002c22:	687b      	ldr	r3, [r7, #4]
 8002c24:	431a      	orrs	r2, r3
 8002c26:	68bb      	ldr	r3, [r7, #8]
 8002c28:	4313      	orrs	r3, r2
 8002c2a:	697a      	ldr	r2, [r7, #20]
 8002c2c:	4313      	orrs	r3, r2
 8002c2e:	617b      	str	r3, [r7, #20]
 8002c30:	68fb      	ldr	r3, [r7, #12]
 8002c32:	697a      	ldr	r2, [r7, #20]
 8002c34:	609a      	str	r2, [r3, #8]
 8002c36:	bf00      	nop
 8002c38:	371c      	adds	r7, #28
 8002c3a:	46bd      	mov	sp, r7
 8002c3c:	bc80      	pop	{r7}
 8002c3e:	4770      	bx	lr

08002c40 <TIM_CCxChannelCmd>:
 8002c40:	b480      	push	{r7}
 8002c42:	b087      	sub	sp, #28
 8002c44:	af00      	add	r7, sp, #0
 8002c46:	60f8      	str	r0, [r7, #12]
 8002c48:	60b9      	str	r1, [r7, #8]
 8002c4a:	607a      	str	r2, [r7, #4]
 8002c4c:	68bb      	ldr	r3, [r7, #8]
 8002c4e:	f003 031f 	and.w	r3, r3, #31
 8002c52:	2201      	movs	r2, #1
 8002c54:	fa02 f303 	lsl.w	r3, r2, r3
 8002c58:	617b      	str	r3, [r7, #20]
 8002c5a:	68fb      	ldr	r3, [r7, #12]
 8002c5c:	6a1a      	ldr	r2, [r3, #32]
 8002c5e:	697b      	ldr	r3, [r7, #20]
 8002c60:	43db      	mvns	r3, r3
 8002c62:	401a      	ands	r2, r3
 8002c64:	68fb      	ldr	r3, [r7, #12]
 8002c66:	621a      	str	r2, [r3, #32]
 8002c68:	68fb      	ldr	r3, [r7, #12]
 8002c6a:	6a1a      	ldr	r2, [r3, #32]
 8002c6c:	68bb      	ldr	r3, [r7, #8]
 8002c6e:	f003 031f 	and.w	r3, r3, #31
 8002c72:	6879      	ldr	r1, [r7, #4]
 8002c74:	fa01 f303 	lsl.w	r3, r1, r3
 8002c78:	431a      	orrs	r2, r3
 8002c7a:	68fb      	ldr	r3, [r7, #12]
 8002c7c:	621a      	str	r2, [r3, #32]
 8002c7e:	bf00      	nop
 8002c80:	371c      	adds	r7, #28
 8002c82:	46bd      	mov	sp, r7
 8002c84:	bc80      	pop	{r7}
 8002c86:	4770      	bx	lr

08002c88 <HAL_TIMEx_MasterConfigSynchronization>:
 8002c88:	b480      	push	{r7}
 8002c8a:	b085      	sub	sp, #20
 8002c8c:	af00      	add	r7, sp, #0
 8002c8e:	6078      	str	r0, [r7, #4]
 8002c90:	6039      	str	r1, [r7, #0]
 8002c92:	687b      	ldr	r3, [r7, #4]
 8002c94:	f893 303c 	ldrb.w	r3, [r3, #60]	; 0x3c
 8002c98:	2b01      	cmp	r3, #1
 8002c9a:	d101      	bne.n	8002ca0 <HAL_TIMEx_MasterConfigSynchronization+0x18>
 8002c9c:	2302      	movs	r3, #2
 8002c9e:	e032      	b.n	8002d06 <HAL_TIMEx_MasterConfigSynchronization+0x7e>
 8002ca0:	687b      	ldr	r3, [r7, #4]
 8002ca2:	2201      	movs	r2, #1
 8002ca4:	f883 203c 	strb.w	r2, [r3, #60]	; 0x3c
 8002ca8:	687b      	ldr	r3, [r7, #4]
 8002caa:	2202      	movs	r2, #2
 8002cac:	f883 203d 	strb.w	r2, [r3, #61]	; 0x3d
 8002cb0:	687b      	ldr	r3, [r7, #4]
 8002cb2:	681b      	ldr	r3, [r3, #0]
 8002cb4:	685b      	ldr	r3, [r3, #4]
 8002cb6:	60fb      	str	r3, [r7, #12]
 8002cb8:	687b      	ldr	r3, [r7, #4]
 8002cba:	681b      	ldr	r3, [r3, #0]
 8002cbc:	689b      	ldr	r3, [r3, #8]
 8002cbe:	60bb      	str	r3, [r7, #8]
 8002cc0:	68fb      	ldr	r3, [r7, #12]
 8002cc2:	f023 0370 	bic.w	r3, r3, #112	; 0x70
 8002cc6:	60fb      	str	r3, [r7, #12]
 8002cc8:	683b      	ldr	r3, [r7, #0]
 8002cca:	681b      	ldr	r3, [r3, #0]
 8002ccc:	68fa      	ldr	r2, [r7, #12]
 8002cce:	4313      	orrs	r3, r2
 8002cd0:	60fb      	str	r3, [r7, #12]
 8002cd2:	68bb      	ldr	r3, [r7, #8]
 8002cd4:	f023 0380 	bic.w	r3, r3, #128	; 0x80
 8002cd8:	60bb      	str	r3, [r7, #8]
 8002cda:	683b      	ldr	r3, [r7, #0]
 8002cdc:	685b      	ldr	r3, [r3, #4]
 8002cde:	68ba      	ldr	r2, [r7, #8]
 8002ce0:	4313      	orrs	r3, r2
 8002ce2:	60bb      	str	r3, [r7, #8]
 8002ce4:	687b      	ldr	r3, [r7, #4]
 8002ce6:	681b      	ldr	r3, [r3, #0]
 8002ce8:	68fa      	ldr	r2, [r7, #12]
 8002cea:	605a      	str	r2, [r3, #4]
 8002cec:	687b      	ldr	r3, [r7, #4]
 8002cee:	681b      	ldr	r3, [r3, #0]
 8002cf0:	68ba      	ldr	r2, [r7, #8]
 8002cf2:	609a      	str	r2, [r3, #8]
 8002cf4:	687b      	ldr	r3, [r7, #4]
 8002cf6:	2201      	movs	r2, #1
 8002cf8:	f883 203d 	strb.w	r2, [r3, #61]	; 0x3d
 8002cfc:	687b      	ldr	r3, [r7, #4]
 8002cfe:	2200      	movs	r2, #0
 8002d00:	f883 203c 	strb.w	r2, [r3, #60]	; 0x3c
 8002d04:	2300      	movs	r3, #0
 8002d06:	4618      	mov	r0, r3
 8002d08:	3714      	adds	r7, #20
 8002d0a:	46bd      	mov	sp, r7
 8002d0c:	bc80      	pop	{r7}
 8002d0e:	4770      	bx	lr

08002d10 <HAL_TIMEx_CommutCallback>:
 8002d10:	b480      	push	{r7}
 8002d12:	b083      	sub	sp, #12
 8002d14:	af00      	add	r7, sp, #0
 8002d16:	6078      	str	r0, [r7, #4]
 8002d18:	bf00      	nop
 8002d1a:	370c      	adds	r7, #12
 8002d1c:	46bd      	mov	sp, r7
 8002d1e:	bc80      	pop	{r7}
 8002d20:	4770      	bx	lr

08002d22 <HAL_TIMEx_BreakCallback>:
 8002d22:	b480      	push	{r7}
 8002d24:	b083      	sub	sp, #12
 8002d26:	af00      	add	r7, sp, #0
 8002d28:	6078      	str	r0, [r7, #4]
 8002d2a:	bf00      	nop
 8002d2c:	370c      	adds	r7, #12
 8002d2e:	46bd      	mov	sp, r7
 8002d30:	bc80      	pop	{r7}
 8002d32:	4770      	bx	lr

08002d34 <MX_ADC1_Init>:
 8002d34:	b580      	push	{r7, lr}
 8002d36:	b084      	sub	sp, #16
 8002d38:	af00      	add	r7, sp, #0
 8002d3a:	1d3b      	adds	r3, r7, #4
 8002d3c:	2200      	movs	r2, #0
 8002d3e:	601a      	str	r2, [r3, #0]
 8002d40:	605a      	str	r2, [r3, #4]
 8002d42:	609a      	str	r2, [r3, #8]
 8002d44:	4b18      	ldr	r3, [pc, #96]	; (8002da8 <MX_ADC1_Init+0x74>)
 8002d46:	4a19      	ldr	r2, [pc, #100]	; (8002dac <MX_ADC1_Init+0x78>)
 8002d48:	601a      	str	r2, [r3, #0]
 8002d4a:	4b17      	ldr	r3, [pc, #92]	; (8002da8 <MX_ADC1_Init+0x74>)
 8002d4c:	2200      	movs	r2, #0
 8002d4e:	609a      	str	r2, [r3, #8]
 8002d50:	4b15      	ldr	r3, [pc, #84]	; (8002da8 <MX_ADC1_Init+0x74>)
 8002d52:	2201      	movs	r2, #1
 8002d54:	731a      	strb	r2, [r3, #12]
 8002d56:	4b14      	ldr	r3, [pc, #80]	; (8002da8 <MX_ADC1_Init+0x74>)
 8002d58:	2200      	movs	r2, #0
 8002d5a:	751a      	strb	r2, [r3, #20]
 8002d5c:	4b12      	ldr	r3, [pc, #72]	; (8002da8 <MX_ADC1_Init+0x74>)
 8002d5e:	f44f 2260 	mov.w	r2, #917504	; 0xe0000
 8002d62:	61da      	str	r2, [r3, #28]
 8002d64:	4b10      	ldr	r3, [pc, #64]	; (8002da8 <MX_ADC1_Init+0x74>)
 8002d66:	2200      	movs	r2, #0
 8002d68:	605a      	str	r2, [r3, #4]
 8002d6a:	4b0f      	ldr	r3, [pc, #60]	; (8002da8 <MX_ADC1_Init+0x74>)
 8002d6c:	2201      	movs	r2, #1
 8002d6e:	611a      	str	r2, [r3, #16]
 8002d70:	480d      	ldr	r0, [pc, #52]	; (8002da8 <MX_ADC1_Init+0x74>)
 8002d72:	f7fd fa6f 	bl	8000254 <HAL_ADC_Init>
 8002d76:	4603      	mov	r3, r0
 8002d78:	2b00      	cmp	r3, #0
 8002d7a:	d001      	beq.n	8002d80 <MX_ADC1_Init+0x4c>
 8002d7c:	f000 fca8 	bl	80036d0 <Error_Handler>
 8002d80:	2310      	movs	r3, #16
 8002d82:	607b      	str	r3, [r7, #4]
 8002d84:	2301      	movs	r3, #1
 8002d86:	60bb      	str	r3, [r7, #8]
 8002d88:	2307      	movs	r3, #7
 8002d8a:	60fb      	str	r3, [r7, #12]
 8002d8c:	1d3b      	adds	r3, r7, #4
 8002d8e:	4619      	mov	r1, r3
 8002d90:	4805      	ldr	r0, [pc, #20]	; (8002da8 <MX_ADC1_Init+0x74>)
 8002d92:	f7fd fc31 	bl	80005f8 <HAL_ADC_ConfigChannel>
 8002d96:	4603      	mov	r3, r0
 8002d98:	2b00      	cmp	r3, #0
 8002d9a:	d001      	beq.n	8002da0 <MX_ADC1_Init+0x6c>
 8002d9c:	f000 fc98 	bl	80036d0 <Error_Handler>
 8002da0:	bf00      	nop
 8002da2:	3710      	adds	r7, #16
 8002da4:	46bd      	mov	sp, r7
 8002da6:	bd80      	pop	{r7, pc}
 8002da8:	20000058 	.word	0x20000058
 8002dac:	40012400 	.word	0x40012400

08002db0 <HAL_ADC_MspInit>:
 8002db0:	b580      	push	{r7, lr}
 8002db2:	b084      	sub	sp, #16
 8002db4:	af00      	add	r7, sp, #0
 8002db6:	6078      	str	r0, [r7, #4]
 8002db8:	687b      	ldr	r3, [r7, #4]
 8002dba:	681b      	ldr	r3, [r3, #0]
 8002dbc:	4a1d      	ldr	r2, [pc, #116]	; (8002e34 <HAL_ADC_MspInit+0x84>)
 8002dbe:	4293      	cmp	r3, r2
 8002dc0:	d133      	bne.n	8002e2a <HAL_ADC_MspInit+0x7a>
 8002dc2:	4b1d      	ldr	r3, [pc, #116]	; (8002e38 <HAL_ADC_MspInit+0x88>)
 8002dc4:	699b      	ldr	r3, [r3, #24]
 8002dc6:	4a1c      	ldr	r2, [pc, #112]	; (8002e38 <HAL_ADC_MspInit+0x88>)
 8002dc8:	f443 7300 	orr.w	r3, r3, #512	; 0x200
 8002dcc:	6193      	str	r3, [r2, #24]
 8002dce:	4b1a      	ldr	r3, [pc, #104]	; (8002e38 <HAL_ADC_MspInit+0x88>)
 8002dd0:	699b      	ldr	r3, [r3, #24]
 8002dd2:	f403 7300 	and.w	r3, r3, #512	; 0x200
 8002dd6:	60fb      	str	r3, [r7, #12]
 8002dd8:	68fb      	ldr	r3, [r7, #12]
 8002dda:	4b18      	ldr	r3, [pc, #96]	; (8002e3c <HAL_ADC_MspInit+0x8c>)
 8002ddc:	4a18      	ldr	r2, [pc, #96]	; (8002e40 <HAL_ADC_MspInit+0x90>)
 8002dde:	601a      	str	r2, [r3, #0]
 8002de0:	4b16      	ldr	r3, [pc, #88]	; (8002e3c <HAL_ADC_MspInit+0x8c>)
 8002de2:	2200      	movs	r2, #0
 8002de4:	605a      	str	r2, [r3, #4]
 8002de6:	4b15      	ldr	r3, [pc, #84]	; (8002e3c <HAL_ADC_MspInit+0x8c>)
 8002de8:	2200      	movs	r2, #0
 8002dea:	609a      	str	r2, [r3, #8]
 8002dec:	4b13      	ldr	r3, [pc, #76]	; (8002e3c <HAL_ADC_MspInit+0x8c>)
 8002dee:	2280      	movs	r2, #128	; 0x80
 8002df0:	60da      	str	r2, [r3, #12]
 8002df2:	4b12      	ldr	r3, [pc, #72]	; (8002e3c <HAL_ADC_MspInit+0x8c>)
 8002df4:	f44f 7280 	mov.w	r2, #256	; 0x100
 8002df8:	611a      	str	r2, [r3, #16]
 8002dfa:	4b10      	ldr	r3, [pc, #64]	; (8002e3c <HAL_ADC_MspInit+0x8c>)
 8002dfc:	f44f 6280 	mov.w	r2, #1024	; 0x400
 8002e00:	615a      	str	r2, [r3, #20]
 8002e02:	4b0e      	ldr	r3, [pc, #56]	; (8002e3c <HAL_ADC_MspInit+0x8c>)
 8002e04:	2220      	movs	r2, #32
 8002e06:	619a      	str	r2, [r3, #24]
 8002e08:	4b0c      	ldr	r3, [pc, #48]	; (8002e3c <HAL_ADC_MspInit+0x8c>)
 8002e0a:	2200      	movs	r2, #0
 8002e0c:	61da      	str	r2, [r3, #28]
 8002e0e:	480b      	ldr	r0, [pc, #44]	; (8002e3c <HAL_ADC_MspInit+0x8c>)
 8002e10:	f7fd ff86 	bl	8000d20 <HAL_DMA_Init>
 8002e14:	4603      	mov	r3, r0
 8002e16:	2b00      	cmp	r3, #0
 8002e18:	d001      	beq.n	8002e1e <HAL_ADC_MspInit+0x6e>
 8002e1a:	f000 fc59 	bl	80036d0 <Error_Handler>
 8002e1e:	687b      	ldr	r3, [r7, #4]
 8002e20:	4a06      	ldr	r2, [pc, #24]	; (8002e3c <HAL_ADC_MspInit+0x8c>)
 8002e22:	621a      	str	r2, [r3, #32]
 8002e24:	4a05      	ldr	r2, [pc, #20]	; (8002e3c <HAL_ADC_MspInit+0x8c>)
 8002e26:	687b      	ldr	r3, [r7, #4]
 8002e28:	6253      	str	r3, [r2, #36]	; 0x24
 8002e2a:	bf00      	nop
 8002e2c:	3710      	adds	r7, #16
 8002e2e:	46bd      	mov	sp, r7
 8002e30:	bd80      	pop	{r7, pc}
 8002e32:	bf00      	nop
 8002e34:	40012400 	.word	0x40012400
 8002e38:	40021000 	.word	0x40021000
 8002e3c:	20000088 	.word	0x20000088
 8002e40:	40020008 	.word	0x40020008

08002e44 <MX_DMA_Init>:
 8002e44:	b580      	push	{r7, lr}
 8002e46:	b082      	sub	sp, #8
 8002e48:	af00      	add	r7, sp, #0
 8002e4a:	4b0c      	ldr	r3, [pc, #48]	; (8002e7c <MX_DMA_Init+0x38>)
 8002e4c:	695b      	ldr	r3, [r3, #20]
 8002e4e:	4a0b      	ldr	r2, [pc, #44]	; (8002e7c <MX_DMA_Init+0x38>)
 8002e50:	f043 0301 	orr.w	r3, r3, #1
 8002e54:	6153      	str	r3, [r2, #20]
 8002e56:	4b09      	ldr	r3, [pc, #36]	; (8002e7c <MX_DMA_Init+0x38>)
 8002e58:	695b      	ldr	r3, [r3, #20]
 8002e5a:	f003 0301 	and.w	r3, r3, #1
 8002e5e:	607b      	str	r3, [r7, #4]
 8002e60:	687b      	ldr	r3, [r7, #4]
 8002e62:	2200      	movs	r2, #0
 8002e64:	210f      	movs	r1, #15
 8002e66:	200b      	movs	r0, #11
 8002e68:	f7fd ff23 	bl	8000cb2 <HAL_NVIC_SetPriority>
 8002e6c:	200b      	movs	r0, #11
 8002e6e:	f7fd ff3c 	bl	8000cea <HAL_NVIC_EnableIRQ>
 8002e72:	bf00      	nop
 8002e74:	3708      	adds	r7, #8
 8002e76:	46bd      	mov	sp, r7
 8002e78:	bd80      	pop	{r7, pc}
 8002e7a:	bf00      	nop
 8002e7c:	40021000 	.word	0x40021000

08002e80 <MX_GPIO_Init>:
 8002e80:	b580      	push	{r7, lr}
 8002e82:	b088      	sub	sp, #32
 8002e84:	af00      	add	r7, sp, #0
 8002e86:	f107 0310 	add.w	r3, r7, #16
 8002e8a:	2200      	movs	r2, #0
 8002e8c:	601a      	str	r2, [r3, #0]
 8002e8e:	605a      	str	r2, [r3, #4]
 8002e90:	609a      	str	r2, [r3, #8]
 8002e92:	60da      	str	r2, [r3, #12]
 8002e94:	4b58      	ldr	r3, [pc, #352]	; (8002ff8 <MX_GPIO_Init+0x178>)
 8002e96:	699b      	ldr	r3, [r3, #24]
 8002e98:	4a57      	ldr	r2, [pc, #348]	; (8002ff8 <MX_GPIO_Init+0x178>)
 8002e9a:	f043 0310 	orr.w	r3, r3, #16
 8002e9e:	6193      	str	r3, [r2, #24]
 8002ea0:	4b55      	ldr	r3, [pc, #340]	; (8002ff8 <MX_GPIO_Init+0x178>)
 8002ea2:	699b      	ldr	r3, [r3, #24]
 8002ea4:	f003 0310 	and.w	r3, r3, #16
 8002ea8:	60fb      	str	r3, [r7, #12]
 8002eaa:	68fb      	ldr	r3, [r7, #12]
 8002eac:	4b52      	ldr	r3, [pc, #328]	; (8002ff8 <MX_GPIO_Init+0x178>)
 8002eae:	699b      	ldr	r3, [r3, #24]
 8002eb0:	4a51      	ldr	r2, [pc, #324]	; (8002ff8 <MX_GPIO_Init+0x178>)
 8002eb2:	f043 0304 	orr.w	r3, r3, #4
 8002eb6:	6193      	str	r3, [r2, #24]
 8002eb8:	4b4f      	ldr	r3, [pc, #316]	; (8002ff8 <MX_GPIO_Init+0x178>)
 8002eba:	699b      	ldr	r3, [r3, #24]
 8002ebc:	f003 0304 	and.w	r3, r3, #4
 8002ec0:	60bb      	str	r3, [r7, #8]
 8002ec2:	68bb      	ldr	r3, [r7, #8]
 8002ec4:	4b4c      	ldr	r3, [pc, #304]	; (8002ff8 <MX_GPIO_Init+0x178>)
 8002ec6:	699b      	ldr	r3, [r3, #24]
 8002ec8:	4a4b      	ldr	r2, [pc, #300]	; (8002ff8 <MX_GPIO_Init+0x178>)
 8002eca:	f043 0308 	orr.w	r3, r3, #8
 8002ece:	6193      	str	r3, [r2, #24]
 8002ed0:	4b49      	ldr	r3, [pc, #292]	; (8002ff8 <MX_GPIO_Init+0x178>)
 8002ed2:	699b      	ldr	r3, [r3, #24]
 8002ed4:	f003 0308 	and.w	r3, r3, #8
 8002ed8:	607b      	str	r3, [r7, #4]
 8002eda:	687b      	ldr	r3, [r7, #4]
 8002edc:	2200      	movs	r2, #0
 8002ede:	f44f 4160 	mov.w	r1, #57344	; 0xe000
 8002ee2:	4846      	ldr	r0, [pc, #280]	; (8002ffc <MX_GPIO_Init+0x17c>)
 8002ee4:	f7fe fa64 	bl	80013b0 <HAL_GPIO_WritePin>
 8002ee8:	2200      	movs	r2, #0
 8002eea:	2120      	movs	r1, #32
 8002eec:	4844      	ldr	r0, [pc, #272]	; (8003000 <MX_GPIO_Init+0x180>)
 8002eee:	f7fe fa5f 	bl	80013b0 <HAL_GPIO_WritePin>
 8002ef2:	2200      	movs	r2, #0
 8002ef4:	f641 4104 	movw	r1, #7172	; 0x1c04
 8002ef8:	4842      	ldr	r0, [pc, #264]	; (8003004 <MX_GPIO_Init+0x184>)
 8002efa:	f7fe fa59 	bl	80013b0 <HAL_GPIO_WritePin>
 8002efe:	f44f 4360 	mov.w	r3, #57344	; 0xe000
 8002f02:	613b      	str	r3, [r7, #16]
 8002f04:	2301      	movs	r3, #1
 8002f06:	617b      	str	r3, [r7, #20]
 8002f08:	2300      	movs	r3, #0
 8002f0a:	61bb      	str	r3, [r7, #24]
 8002f0c:	2302      	movs	r3, #2
 8002f0e:	61fb      	str	r3, [r7, #28]
 8002f10:	f107 0310 	add.w	r3, r7, #16
 8002f14:	4619      	mov	r1, r3
 8002f16:	4839      	ldr	r0, [pc, #228]	; (8002ffc <MX_GPIO_Init+0x17c>)
 8002f18:	f7fe f8f0 	bl	80010fc <HAL_GPIO_Init>
 8002f1c:	2304      	movs	r3, #4
 8002f1e:	613b      	str	r3, [r7, #16]
 8002f20:	4b39      	ldr	r3, [pc, #228]	; (8003008 <MX_GPIO_Init+0x188>)
 8002f22:	617b      	str	r3, [r7, #20]
 8002f24:	2301      	movs	r3, #1
 8002f26:	61bb      	str	r3, [r7, #24]
 8002f28:	f107 0310 	add.w	r3, r7, #16
 8002f2c:	4619      	mov	r1, r3
 8002f2e:	4834      	ldr	r0, [pc, #208]	; (8003000 <MX_GPIO_Init+0x180>)
 8002f30:	f7fe f8e4 	bl	80010fc <HAL_GPIO_Init>
 8002f34:	2320      	movs	r3, #32
 8002f36:	613b      	str	r3, [r7, #16]
 8002f38:	2301      	movs	r3, #1
 8002f3a:	617b      	str	r3, [r7, #20]
 8002f3c:	2300      	movs	r3, #0
 8002f3e:	61bb      	str	r3, [r7, #24]
 8002f40:	2302      	movs	r3, #2
 8002f42:	61fb      	str	r3, [r7, #28]
 8002f44:	f107 0310 	add.w	r3, r7, #16
 8002f48:	4619      	mov	r1, r3
 8002f4a:	482d      	ldr	r0, [pc, #180]	; (8003000 <MX_GPIO_Init+0x180>)
 8002f4c:	f7fe f8d6 	bl	80010fc <HAL_GPIO_Init>
 8002f50:	f640 4304 	movw	r3, #3076	; 0xc04
 8002f54:	613b      	str	r3, [r7, #16]
 8002f56:	2301      	movs	r3, #1
 8002f58:	617b      	str	r3, [r7, #20]
 8002f5a:	2302      	movs	r3, #2
 8002f5c:	61bb      	str	r3, [r7, #24]
 8002f5e:	2302      	movs	r3, #2
 8002f60:	61fb      	str	r3, [r7, #28]
 8002f62:	f107 0310 	add.w	r3, r7, #16
 8002f66:	4619      	mov	r1, r3
 8002f68:	4826      	ldr	r0, [pc, #152]	; (8003004 <MX_GPIO_Init+0x184>)
 8002f6a:	f7fe f8c7 	bl	80010fc <HAL_GPIO_Init>
 8002f6e:	f44f 5380 	mov.w	r3, #4096	; 0x1000
 8002f72:	613b      	str	r3, [r7, #16]
 8002f74:	2301      	movs	r3, #1
 8002f76:	617b      	str	r3, [r7, #20]
 8002f78:	2300      	movs	r3, #0
 8002f7a:	61bb      	str	r3, [r7, #24]
 8002f7c:	2302      	movs	r3, #2
 8002f7e:	61fb      	str	r3, [r7, #28]
 8002f80:	f107 0310 	add.w	r3, r7, #16
 8002f84:	4619      	mov	r1, r3
 8002f86:	481f      	ldr	r0, [pc, #124]	; (8003004 <MX_GPIO_Init+0x184>)
 8002f88:	f7fe f8b8 	bl	80010fc <HAL_GPIO_Init>
 8002f8c:	f44f 43c0 	mov.w	r3, #24576	; 0x6000
 8002f90:	613b      	str	r3, [r7, #16]
 8002f92:	4b1e      	ldr	r3, [pc, #120]	; (800300c <MX_GPIO_Init+0x18c>)
 8002f94:	617b      	str	r3, [r7, #20]
 8002f96:	2302      	movs	r3, #2
 8002f98:	61bb      	str	r3, [r7, #24]
 8002f9a:	f107 0310 	add.w	r3, r7, #16
 8002f9e:	4619      	mov	r1, r3
 8002fa0:	4818      	ldr	r0, [pc, #96]	; (8003004 <MX_GPIO_Init+0x184>)
 8002fa2:	f7fe f8ab 	bl	80010fc <HAL_GPIO_Init>
 8002fa6:	f44f 7380 	mov.w	r3, #256	; 0x100
 8002faa:	613b      	str	r3, [r7, #16]
 8002fac:	4b17      	ldr	r3, [pc, #92]	; (800300c <MX_GPIO_Init+0x18c>)
 8002fae:	617b      	str	r3, [r7, #20]
 8002fb0:	2302      	movs	r3, #2
 8002fb2:	61bb      	str	r3, [r7, #24]
 8002fb4:	f107 0310 	add.w	r3, r7, #16
 8002fb8:	4619      	mov	r1, r3
 8002fba:	4811      	ldr	r0, [pc, #68]	; (8003000 <MX_GPIO_Init+0x180>)
 8002fbc:	f7fe f89e 	bl	80010fc <HAL_GPIO_Init>
 8002fc0:	2200      	movs	r2, #0
 8002fc2:	2102      	movs	r1, #2
 8002fc4:	2008      	movs	r0, #8
 8002fc6:	f7fd fe74 	bl	8000cb2 <HAL_NVIC_SetPriority>
 8002fca:	2008      	movs	r0, #8
 8002fcc:	f7fd fe8d 	bl	8000cea <HAL_NVIC_EnableIRQ>
 8002fd0:	2200      	movs	r2, #0
 8002fd2:	2101      	movs	r1, #1
 8002fd4:	2017      	movs	r0, #23
 8002fd6:	f7fd fe6c 	bl	8000cb2 <HAL_NVIC_SetPriority>
 8002fda:	2017      	movs	r0, #23
 8002fdc:	f7fd fe85 	bl	8000cea <HAL_NVIC_EnableIRQ>
 8002fe0:	2200      	movs	r2, #0
 8002fe2:	2100      	movs	r1, #0
 8002fe4:	2028      	movs	r0, #40	; 0x28
 8002fe6:	f7fd fe64 	bl	8000cb2 <HAL_NVIC_SetPriority>
 8002fea:	2028      	movs	r0, #40	; 0x28
 8002fec:	f7fd fe7d 	bl	8000cea <HAL_NVIC_EnableIRQ>
 8002ff0:	bf00      	nop
 8002ff2:	3720      	adds	r7, #32
 8002ff4:	46bd      	mov	sp, r7
 8002ff6:	bd80      	pop	{r7, pc}
 8002ff8:	40021000 	.word	0x40021000
 8002ffc:	40011000 	.word	0x40011000
 8003000:	40010800 	.word	0x40010800
 8003004:	40010c00 	.word	0x40010c00
 8003008:	10210000 	.word	0x10210000
 800300c:	10110000 	.word	0x10110000

08003010 <__NVIC_SystemReset>:
/**
  \brief   System Reset
  \details Initiates a system reset request to reset the MCU.
 */
__NO_RETURN __STATIC_INLINE void __NVIC_SystemReset(void)
{
 8003010:	b480      	push	{r7}
 8003012:	af00      	add	r7, sp, #0
  \details Acts as a special kind of Data Memory Barrier.
           It completes when all explicit memory accesses before this instruction complete.
 */
__STATIC_FORCEINLINE void __DSB(void)
{
  __ASM volatile ("dsb 0xF":::"memory");
 8003014:	f3bf 8f4f 	dsb	sy
  __DSB();                                                          /* Ensure all outstanding memory accesses included
                                                                       buffered write are completed before reset */
  SCB->AIRCR  = (uint32_t)((0x5FAUL << SCB_AIRCR_VECTKEY_Pos)    |
                           (SCB->AIRCR & SCB_AIRCR_PRIGROUP_Msk) |
 8003018:	4b05      	ldr	r3, [pc, #20]	; (8003030 <__NVIC_SystemReset+0x20>)
 800301a:	68db      	ldr	r3, [r3, #12]
 800301c:	f403 62e0 	and.w	r2, r3, #1792	; 0x700
  SCB->AIRCR  = (uint32_t)((0x5FAUL << SCB_AIRCR_VECTKEY_Pos)    |
 8003020:	4903      	ldr	r1, [pc, #12]	; (8003030 <__NVIC_SystemReset+0x20>)
 8003022:	4b04      	ldr	r3, [pc, #16]	; (8003034 <__NVIC_SystemReset+0x24>)
 8003024:	4313      	orrs	r3, r2
 8003026:	60cb      	str	r3, [r1, #12]
 8003028:	f3bf 8f4f 	dsb	sy
                            SCB_AIRCR_SYSRESETREQ_Msk    );         /* Keep priority group unchanged */
  __DSB();                                                          /* Ensure completion of memory access */

  for(;;)                                                           /* wait until reset */
  {
    __NOP();
 800302c:	bf00      	nop
 800302e:	e7fd      	b.n	800302c <__NVIC_SystemReset+0x1c>
 8003030:	e000ed00 	.word	0xe000ed00
 8003034:	05fa0004 	.word	0x05fa0004

08003038 <main>:
/**
  * @brief  The application entry point.
  * @retval int
  */
int main(void)
{
 8003038:	b580      	push	{r7, lr}
 800303a:	af00      	add	r7, sp, #0
  

  /* MCU Configuration--------------------------------------------------------*/

  /* Reset of all peripherals, Initializes the Flash interface and the Systick. */
  HAL_Init();
 800303c:	f7fd f886 	bl	800014c <HAL_Init>
  /* USER CODE BEGIN Init */

  /* USER CODE END Init */

  /* Configure the system clock */
  SystemClock_Config();
 8003040:	f000 f880 	bl	8003144 <SystemClock_Config>
  /* USER CODE BEGIN SysInit */

  /* USER CODE END SysInit */

  /* Initialize all configured peripherals */
  MX_GPIO_Init();
 8003044:	f7ff ff1c 	bl	8002e80 <MX_GPIO_Init>
  MX_DMA_Init();
 8003048:	f7ff fefc 	bl	8002e44 <MX_DMA_Init>
  MX_ADC1_Init();
 800304c:	f7ff fe72 	bl	8002d34 <MX_ADC1_Init>
  MX_TIM1_Init();
 8003050:	f000 fc0e 	bl	8003870 <MX_TIM1_Init>
  MX_TIM2_Init();
 8003054:	f000 fc5c 	bl	8003910 <MX_TIM2_Init>
  MX_TIM3_Init();
 8003058:	f000 fcae 	bl	80039b8 <MX_TIM3_Init>
  MX_TIM4_Init();
 800305c:	f000 fd04 	bl	8003a68 <MX_TIM4_Init>
  /* USER CODE BEGIN 2 */

  HAL_GPIO_WritePin(LED_READY_GPIO_Port, LED_READY_Pin, SET);
 8003060:	2201      	movs	r2, #1
 8003062:	f44f 5100 	mov.w	r1, #8192	; 0x2000
 8003066:	482e      	ldr	r0, [pc, #184]	; (8003120 <main+0xe8>)
 8003068:	f7fe f9a2 	bl	80013b0 <HAL_GPIO_WritePin>
  HAL_GPIO_WritePin(LED_WORKING_GPIO_Port, LED_WORKING_Pin, SET);
 800306c:	2201      	movs	r2, #1
 800306e:	f44f 4180 	mov.w	r1, #16384	; 0x4000
 8003072:	482b      	ldr	r0, [pc, #172]	; (8003120 <main+0xe8>)
 8003074:	f7fe f99c 	bl	80013b0 <HAL_GPIO_WritePin>
  HAL_GPIO_WritePin(LED_ERROR_GPIO_Port, LED_ERROR_Pin, SET);
 8003078:	2201      	movs	r2, #1
 800307a:	f44f 4100 	mov.w	r1, #32768	; 0x8000
 800307e:	4828      	ldr	r0, [pc, #160]	; (8003120 <main+0xe8>)
 8003080:	f7fe f996 	bl	80013b0 <HAL_GPIO_WritePin>

  while(HAL_OK != HAL_ADCEx_Calibration_Start(&hadc1));
 8003084:	bf00      	nop
 8003086:	4827      	ldr	r0, [pc, #156]	; (8003124 <main+0xec>)
 8003088:	f7fd fca0 	bl	80009cc <HAL_ADCEx_Calibration_Start>
 800308c:	4603      	mov	r3, r0
 800308e:	2b00      	cmp	r3, #0
 8003090:	d1f9      	bne.n	8003086 <main+0x4e>


  HAL_ADC_Start_DMA(&hadc1, ADC1_results, ADC1_NUMBER_OF_READINGS);
 8003092:	2201      	movs	r2, #1
 8003094:	4924      	ldr	r1, [pc, #144]	; (8003128 <main+0xf0>)
 8003096:	4823      	ldr	r0, [pc, #140]	; (8003124 <main+0xec>)
 8003098:	f7fd f9b4 	bl	8000404 <HAL_ADC_Start_DMA>
  HAL_TIM_Base_Start_IT(&htim4);
 800309c:	4823      	ldr	r0, [pc, #140]	; (800312c <main+0xf4>)
 800309e:	f7fe ff97 	bl	8001fd0 <HAL_TIM_Base_Start_IT>
  HAL_TIM_Base_Start_IT(&htim1);
 80030a2:	4823      	ldr	r0, [pc, #140]	; (8003130 <main+0xf8>)
 80030a4:	f7fe ff94 	bl	8001fd0 <HAL_TIM_Base_Start_IT>
  HAL_TIM_PWM_Start(&htim3, TIM_CHANNEL_3);
 80030a8:	2108      	movs	r1, #8
 80030aa:	4822      	ldr	r0, [pc, #136]	; (8003134 <main+0xfc>)
 80030ac:	f7fe ffde 	bl	800206c <HAL_TIM_PWM_Start>
  HAL_TIM_Base_Start(&htim2);
 80030b0:	4821      	ldr	r0, [pc, #132]	; (8003138 <main+0x100>)
 80030b2:	f7fe ff6a 	bl	8001f8a <HAL_TIM_Base_Start>
  /* USER CODE END 2 */

  /* Infinite loop */
  /* USER CODE BEGIN WHILE */

  HAL_Delay(1000);
 80030b6:	f44f 707a 	mov.w	r0, #1000	; 0x3e8
 80030ba:	f7fd f8a9 	bl	8000210 <HAL_Delay>

  HAL_GPIO_WritePin(LED_READY_GPIO_Port, LED_READY_Pin, SET);
 80030be:	2201      	movs	r2, #1
 80030c0:	f44f 5100 	mov.w	r1, #8192	; 0x2000
 80030c4:	4816      	ldr	r0, [pc, #88]	; (8003120 <main+0xe8>)
 80030c6:	f7fe f973 	bl	80013b0 <HAL_GPIO_WritePin>
  HAL_GPIO_WritePin(LED_WORKING_GPIO_Port, LED_WORKING_Pin, RESET);
 80030ca:	2200      	movs	r2, #0
 80030cc:	f44f 4180 	mov.w	r1, #16384	; 0x4000
 80030d0:	4813      	ldr	r0, [pc, #76]	; (8003120 <main+0xe8>)
 80030d2:	f7fe f96d 	bl	80013b0 <HAL_GPIO_WritePin>
  HAL_GPIO_WritePin(LED_ERROR_GPIO_Port, LED_ERROR_Pin, RESET);
 80030d6:	2200      	movs	r2, #0
 80030d8:	f44f 4100 	mov.w	r1, #32768	; 0x8000
 80030dc:	4810      	ldr	r0, [pc, #64]	; (8003120 <main+0xe8>)
 80030de:	f7fe f967 	bl	80013b0 <HAL_GPIO_WritePin>
  {
    /* USER CODE END WHILE */

    /* USER CODE BEGIN 3 */

	  if(NO_ERROR != ErrorCode)
 80030e2:	4b16      	ldr	r3, [pc, #88]	; (800313c <main+0x104>)
 80030e4:	781b      	ldrb	r3, [r3, #0]
 80030e6:	b2db      	uxtb	r3, r3
 80030e8:	2b00      	cmp	r3, #0
 80030ea:	d002      	beq.n	80030f2 <main+0xba>
	  {
		  Error_Handling();
 80030ec:	f000 f9a6 	bl	800343c <Error_Handling>
 80030f0:	e003      	b.n	80030fa <main+0xc2>
	  }
	  else
	  {
		  Update_Encoder_Settings();
 80030f2:	f000 fa5b 	bl	80035ac <Update_Encoder_Settings>
		  CPU_Temp_Handling();
 80030f6:	f000 f973 	bl	80033e0 <CPU_Temp_Handling>
	  }


	  if(OFF == STATE)
 80030fa:	4b11      	ldr	r3, [pc, #68]	; (8003140 <main+0x108>)
 80030fc:	781b      	ldrb	r3, [r3, #0]
 80030fe:	b2db      	uxtb	r3, r3
 8003100:	2b00      	cmp	r3, #0
 8003102:	d106      	bne.n	8003112 <main+0xda>
	  {
		  HAL_GPIO_WritePin(LED_WORKING_GPIO_Port, LED_WORKING_Pin, RESET);
 8003104:	2200      	movs	r2, #0
 8003106:	f44f 4180 	mov.w	r1, #16384	; 0x4000
 800310a:	4805      	ldr	r0, [pc, #20]	; (8003120 <main+0xe8>)
 800310c:	f7fe f950 	bl	80013b0 <HAL_GPIO_WritePin>
 8003110:	e7e7      	b.n	80030e2 <main+0xaa>
	  }
	  else
	  {
		  HAL_GPIO_WritePin(LED_WORKING_GPIO_Port, LED_WORKING_Pin, SET);
 8003112:	2201      	movs	r2, #1
 8003114:	f44f 4180 	mov.w	r1, #16384	; 0x4000
 8003118:	4801      	ldr	r0, [pc, #4]	; (8003120 <main+0xe8>)
 800311a:	f7fe f949 	bl	80013b0 <HAL_GPIO_WritePin>
	  if(NO_ERROR != ErrorCode)
 800311e:	e7e0      	b.n	80030e2 <main+0xaa>
 8003120:	40011000 	.word	0x40011000
 8003124:	20000058 	.word	0x20000058
 8003128:	2000002c 	.word	0x2000002c
 800312c:	200000cc 	.word	0x200000cc
 8003130:	2000014c 	.word	0x2000014c
 8003134:	2000010c 	.word	0x2000010c
 8003138:	2000018c 	.word	0x2000018c
 800313c:	20000032 	.word	0x20000032
 8003140:	2000003c 	.word	0x2000003c

08003144 <SystemClock_Config>:
/**
  * @brief System Clock Configuration
  * @retval None
  */
void SystemClock_Config(void)
{
 8003144:	b580      	push	{r7, lr}
 8003146:	b094      	sub	sp, #80	; 0x50
 8003148:	af00      	add	r7, sp, #0
  RCC_OscInitTypeDef RCC_OscInitStruct = {0};
 800314a:	f107 0328 	add.w	r3, r7, #40	; 0x28
 800314e:	2228      	movs	r2, #40	; 0x28
 8003150:	2100      	movs	r1, #0
 8003152:	4618      	mov	r0, r3
 8003154:	f000 fdee 	bl	8003d34 <memset>
  RCC_ClkInitTypeDef RCC_ClkInitStruct = {0};
 8003158:	f107 0314 	add.w	r3, r7, #20
 800315c:	2200      	movs	r2, #0
 800315e:	601a      	str	r2, [r3, #0]
 8003160:	605a      	str	r2, [r3, #4]
 8003162:	609a      	str	r2, [r3, #8]
 8003164:	60da      	str	r2, [r3, #12]
 8003166:	611a      	str	r2, [r3, #16]
  RCC_PeriphCLKInitTypeDef PeriphClkInit = {0};
 8003168:	1d3b      	adds	r3, r7, #4
 800316a:	2200      	movs	r2, #0
 800316c:	601a      	str	r2, [r3, #0]
 800316e:	605a      	str	r2, [r3, #4]
 8003170:	609a      	str	r2, [r3, #8]
 8003172:	60da      	str	r2, [r3, #12]

  /** Initializes the CPU, AHB and APB busses clocks 
  */
  RCC_OscInitStruct.OscillatorType = RCC_OSCILLATORTYPE_HSI;
 8003174:	2302      	movs	r3, #2
 8003176:	62bb      	str	r3, [r7, #40]	; 0x28
  RCC_OscInitStruct.HSIState = RCC_HSI_ON;
 8003178:	2301      	movs	r3, #1
 800317a:	63bb      	str	r3, [r7, #56]	; 0x38
  RCC_OscInitStruct.HSICalibrationValue = RCC_HSICALIBRATION_DEFAULT;
 800317c:	2310      	movs	r3, #16
 800317e:	63fb      	str	r3, [r7, #60]	; 0x3c
  RCC_OscInitStruct.PLL.PLLState = RCC_PLL_ON;
 8003180:	2302      	movs	r3, #2
 8003182:	647b      	str	r3, [r7, #68]	; 0x44
  RCC_OscInitStruct.PLL.PLLSource = RCC_PLLSOURCE_HSI_DIV2;
 8003184:	2300      	movs	r3, #0
 8003186:	64bb      	str	r3, [r7, #72]	; 0x48
  RCC_OscInitStruct.PLL.PLLMUL = RCC_PLL_MUL16;
 8003188:	f44f 1360 	mov.w	r3, #3670016	; 0x380000
 800318c:	64fb      	str	r3, [r7, #76]	; 0x4c
  if (HAL_RCC_OscConfig(&RCC_OscInitStruct) != HAL_OK)
 800318e:	f107 0328 	add.w	r3, r7, #40	; 0x28
 8003192:	4618      	mov	r0, r3
 8003194:	f7fe f954 	bl	8001440 <HAL_RCC_OscConfig>
 8003198:	4603      	mov	r3, r0
 800319a:	2b00      	cmp	r3, #0
 800319c:	d001      	beq.n	80031a2 <SystemClock_Config+0x5e>
  {
    Error_Handler();
 800319e:	f000 fa97 	bl	80036d0 <Error_Handler>
  }
  /** Initializes the CPU, AHB and APB busses clocks 
  */
  RCC_ClkInitStruct.ClockType = RCC_CLOCKTYPE_HCLK|RCC_CLOCKTYPE_SYSCLK
 80031a2:	230f      	movs	r3, #15
 80031a4:	617b      	str	r3, [r7, #20]
                              |RCC_CLOCKTYPE_PCLK1|RCC_CLOCKTYPE_PCLK2;
  RCC_ClkInitStruct.SYSCLKSource = RCC_SYSCLKSOURCE_PLLCLK;
 80031a6:	2302      	movs	r3, #2
 80031a8:	61bb      	str	r3, [r7, #24]
  RCC_ClkInitStruct.AHBCLKDivider = RCC_SYSCLK_DIV1;
 80031aa:	2300      	movs	r3, #0
 80031ac:	61fb      	str	r3, [r7, #28]
  RCC_ClkInitStruct.APB1CLKDivider = RCC_HCLK_DIV2;
 80031ae:	f44f 6380 	mov.w	r3, #1024	; 0x400
 80031b2:	623b      	str	r3, [r7, #32]
  RCC_ClkInitStruct.APB2CLKDivider = RCC_HCLK_DIV1;
 80031b4:	2300      	movs	r3, #0
 80031b6:	627b      	str	r3, [r7, #36]	; 0x24

  if (HAL_RCC_ClockConfig(&RCC_ClkInitStruct, FLASH_LATENCY_2) != HAL_OK)
 80031b8:	f107 0314 	add.w	r3, r7, #20
 80031bc:	2102      	movs	r1, #2
 80031be:	4618      	mov	r0, r3
 80031c0:	f7fe fbbe 	bl	8001940 <HAL_RCC_ClockConfig>
 80031c4:	4603      	mov	r3, r0
 80031c6:	2b00      	cmp	r3, #0
 80031c8:	d001      	beq.n	80031ce <SystemClock_Config+0x8a>
  {
    Error_Handler();
 80031ca:	f000 fa81 	bl	80036d0 <Error_Handler>
  }
  PeriphClkInit.PeriphClockSelection = RCC_PERIPHCLK_ADC;
 80031ce:	2302      	movs	r3, #2
 80031d0:	607b      	str	r3, [r7, #4]
  PeriphClkInit.AdcClockSelection = RCC_ADCPCLK2_DIV8;
 80031d2:	f44f 4340 	mov.w	r3, #49152	; 0xc000
 80031d6:	60fb      	str	r3, [r7, #12]
  if (HAL_RCCEx_PeriphCLKConfig(&PeriphClkInit) != HAL_OK)
 80031d8:	1d3b      	adds	r3, r7, #4
 80031da:	4618      	mov	r0, r3
 80031dc:	f7fe fd38 	bl	8001c50 <HAL_RCCEx_PeriphCLKConfig>
 80031e0:	4603      	mov	r3, r0
 80031e2:	2b00      	cmp	r3, #0
 80031e4:	d001      	beq.n	80031ea <SystemClock_Config+0xa6>
  {
    Error_Handler();
 80031e6:	f000 fa73 	bl	80036d0 <Error_Handler>
  }
}
 80031ea:	bf00      	nop
 80031ec:	3750      	adds	r7, #80	; 0x50
 80031ee:	46bd      	mov	sp, r7
 80031f0:	bd80      	pop	{r7, pc}
	...

080031f4 <HAL_TIM_PeriodElapsedCallback>:
/* USER CODE BEGIN 4 */

/*********** HERE BEGIN INTERRUPTS FUNCTIONS ***********/

void HAL_TIM_PeriodElapsedCallback(TIM_HandleTypeDef *htim)
{
 80031f4:	b580      	push	{r7, lr}
 80031f6:	b086      	sub	sp, #24
 80031f8:	af00      	add	r7, sp, #0
 80031fa:	6078      	str	r0, [r7, #4]
	static int32_t RPM_difference_previous = 0;
	static int32_t RPM_difference_this = 0;
	int32_t difference_in_difference = 0;
 80031fc:	2300      	movs	r3, #0
 80031fe:	617b      	str	r3, [r7, #20]
	int32_t tmp_variable = 0;
 8003200:	2300      	movs	r3, #0
 8003202:	613b      	str	r3, [r7, #16]
	uint32_t adjusted_RPM = 0;
 8003204:	2300      	movs	r3, #0
 8003206:	60fb      	str	r3, [r7, #12]

#ifdef DO_DELAY_BETWEEN_ITERATIONS
	static uint16_t iteration = 0;
#endif

	if(&htim1 == htim)
 8003208:	687b      	ldr	r3, [r7, #4]
 800320a:	4a4f      	ldr	r2, [pc, #316]	; (8003348 <HAL_TIM_PeriodElapsedCallback+0x154>)
 800320c:	4293      	cmp	r3, r2
 800320e:	d106      	bne.n	800321e <HAL_TIM_PeriodElapsedCallback+0x2a>
	{
		++my_TIM1_programm_timer;
 8003210:	4b4e      	ldr	r3, [pc, #312]	; (800334c <HAL_TIM_PeriodElapsedCallback+0x158>)
 8003212:	681b      	ldr	r3, [r3, #0]
 8003214:	3301      	adds	r3, #1
 8003216:	4a4d      	ldr	r2, [pc, #308]	; (800334c <HAL_TIM_PeriodElapsedCallback+0x158>)
 8003218:	6013      	str	r3, [r2, #0]
		  Make_Soud();
 800321a:	f000 fa0d 	bl	8003638 <Make_Soud>
	}

	if(&htim4 == htim)
 800321e:	687b      	ldr	r3, [r7, #4]
 8003220:	4a4b      	ldr	r2, [pc, #300]	; (8003350 <HAL_TIM_PeriodElapsedCallback+0x15c>)
 8003222:	4293      	cmp	r3, r2
 8003224:	f040 808c 	bne.w	8003340 <HAL_TIM_PeriodElapsedCallback+0x14c>
	{
		adjusted_RPM = RPM_counter * RPM_COEFF * NUMBER_OF_COUNTINGS_IN_ONE_SECOND;
 8003228:	4b4a      	ldr	r3, [pc, #296]	; (8003354 <HAL_TIM_PeriodElapsedCallback+0x160>)
 800322a:	681b      	ldr	r3, [r3, #0]
 800322c:	009b      	lsls	r3, r3, #2
 800322e:	60fb      	str	r3, [r7, #12]
		RPM_difference_this = Set_RPM - (adjusted_RPM);
 8003230:	4b49      	ldr	r3, [pc, #292]	; (8003358 <HAL_TIM_PeriodElapsedCallback+0x164>)
 8003232:	681a      	ldr	r2, [r3, #0]
 8003234:	68fb      	ldr	r3, [r7, #12]
 8003236:	1ad3      	subs	r3, r2, r3
 8003238:	461a      	mov	r2, r3
 800323a:	4b48      	ldr	r3, [pc, #288]	; (800335c <HAL_TIM_PeriodElapsedCallback+0x168>)
 800323c:	601a      	str	r2, [r3, #0]

		if (OFF == STATE)
 800323e:	4b48      	ldr	r3, [pc, #288]	; (8003360 <HAL_TIM_PeriodElapsedCallback+0x16c>)
 8003240:	781b      	ldrb	r3, [r3, #0]
 8003242:	b2db      	uxtb	r3, r3
 8003244:	2b00      	cmp	r3, #0
 8003246:	d102      	bne.n	800324e <HAL_TIM_PeriodElapsedCallback+0x5a>
		{
			Set_RPM = adjusted_RPM;
 8003248:	4a43      	ldr	r2, [pc, #268]	; (8003358 <HAL_TIM_PeriodElapsedCallback+0x164>)
 800324a:	68fb      	ldr	r3, [r7, #12]
 800324c:	6013      	str	r3, [r2, #0]
		}

		RPM_counter = 0;
 800324e:	4b41      	ldr	r3, [pc, #260]	; (8003354 <HAL_TIM_PeriodElapsedCallback+0x160>)
 8003250:	2200      	movs	r2, #0
 8003252:	601a      	str	r2, [r3, #0]
		PWM_PULSE = 0;
 8003254:	4b43      	ldr	r3, [pc, #268]	; (8003364 <HAL_TIM_PeriodElapsedCallback+0x170>)
 8003256:	2200      	movs	r2, #0
 8003258:	63da      	str	r2, [r3, #60]	; 0x3c

		difference_in_difference = RPM_difference_this - RPM_difference_previous;
 800325a:	4b40      	ldr	r3, [pc, #256]	; (800335c <HAL_TIM_PeriodElapsedCallback+0x168>)
 800325c:	681a      	ldr	r2, [r3, #0]
 800325e:	4b42      	ldr	r3, [pc, #264]	; (8003368 <HAL_TIM_PeriodElapsedCallback+0x174>)
 8003260:	681b      	ldr	r3, [r3, #0]
 8003262:	1ad3      	subs	r3, r2, r3
 8003264:	617b      	str	r3, [r7, #20]
		difference_in_difference *= K_REGULATOR_GAIN;
 8003266:	697b      	ldr	r3, [r7, #20]
 8003268:	005b      	lsls	r3, r3, #1
 800326a:	617b      	str	r3, [r7, #20]

#if DEBUG_THINGS == TRUE
		HAL_GPIO_TogglePin(BUILT_IN_LED_PORT, BUILT_IN_LED_PIN);
 800326c:	f44f 5180 	mov.w	r1, #4096	; 0x1000
 8003270:	483e      	ldr	r0, [pc, #248]	; (800336c <HAL_TIM_PeriodElapsedCallback+0x178>)
 8003272:	f7fe f8b5 	bl	80013e0 <HAL_GPIO_TogglePin>
#endif

		if(OFF == STATE)
 8003276:	4b3a      	ldr	r3, [pc, #232]	; (8003360 <HAL_TIM_PeriodElapsedCallback+0x16c>)
 8003278:	781b      	ldrb	r3, [r3, #0]
 800327a:	b2db      	uxtb	r3, r3
 800327c:	2b00      	cmp	r3, #0
 800327e:	d101      	bne.n	8003284 <HAL_TIM_PeriodElapsedCallback+0x90>
		{
			Set_Electromagnes_Off();
 8003280:	f000 f97a 	bl	8003578 <Set_Electromagnes_Off>
		}

		tmp_variable = abs(difference_in_difference);
 8003284:	697b      	ldr	r3, [r7, #20]
 8003286:	2b00      	cmp	r3, #0
 8003288:	bfb8      	it	lt
 800328a:	425b      	neglt	r3, r3
 800328c:	613b      	str	r3, [r7, #16]

		if((ON == STATE) && (MAX_ALLOWED_RPM_DIFFERENCE <= tmp_variable))
 800328e:	4b34      	ldr	r3, [pc, #208]	; (8003360 <HAL_TIM_PeriodElapsedCallback+0x16c>)
 8003290:	781b      	ldrb	r3, [r3, #0]
 8003292:	b2db      	uxtb	r3, r3
 8003294:	2b01      	cmp	r3, #1
 8003296:	d14e      	bne.n	8003336 <HAL_TIM_PeriodElapsedCallback+0x142>
 8003298:	693b      	ldr	r3, [r7, #16]
 800329a:	2b09      	cmp	r3, #9
 800329c:	dd4b      	ble.n	8003336 <HAL_TIM_PeriodElapsedCallback+0x142>
		{
#ifdef DO_DELAY_BETWEEN_ITERATIONS
			++iteration;
 800329e:	4b34      	ldr	r3, [pc, #208]	; (8003370 <HAL_TIM_PeriodElapsedCallback+0x17c>)
 80032a0:	881b      	ldrh	r3, [r3, #0]
 80032a2:	3301      	adds	r3, #1
 80032a4:	b29a      	uxth	r2, r3
 80032a6:	4b32      	ldr	r3, [pc, #200]	; (8003370 <HAL_TIM_PeriodElapsedCallback+0x17c>)
 80032a8:	801a      	strh	r2, [r3, #0]
#endif

			HAL_GPIO_WritePin(LED_WORKING_GPIO_Port, LED_WORKING_Pin, SET);
 80032aa:	2201      	movs	r2, #1
 80032ac:	f44f 4180 	mov.w	r1, #16384	; 0x4000
 80032b0:	4830      	ldr	r0, [pc, #192]	; (8003374 <HAL_TIM_PeriodElapsedCallback+0x180>)
 80032b2:	f7fe f87d 	bl	80013b0 <HAL_GPIO_WritePin>
			Set_Electromagnes_On();
 80032b6:	f000 f953 	bl	8003560 <Set_Electromagnes_On>

			if(difference_in_difference < 0)
 80032ba:	697b      	ldr	r3, [r7, #20]
 80032bc:	2b00      	cmp	r3, #0
 80032be:	da13      	bge.n	80032e8 <HAL_TIM_PeriodElapsedCallback+0xf4>
			{
				Set_Direction(DECREASE);
 80032c0:	f04f 30ff 	mov.w	r0, #4294967295
 80032c4:	f000 f908 	bl	80034d8 <Set_Direction>
				if(difference_in_difference < ((-1) * PWM_RESOLUTION))
 80032c8:	4b26      	ldr	r3, [pc, #152]	; (8003364 <HAL_TIM_PeriodElapsedCallback+0x170>)
 80032ca:	6adb      	ldr	r3, [r3, #44]	; 0x2c
 80032cc:	425a      	negs	r2, r3
 80032ce:	697b      	ldr	r3, [r7, #20]
 80032d0:	429a      	cmp	r2, r3
 80032d2:	d904      	bls.n	80032de <HAL_TIM_PeriodElapsedCallback+0xea>
				{
					PWM_PULSE = PWM_RESOLUTION;
 80032d4:	4b23      	ldr	r3, [pc, #140]	; (8003364 <HAL_TIM_PeriodElapsedCallback+0x170>)
 80032d6:	4a23      	ldr	r2, [pc, #140]	; (8003364 <HAL_TIM_PeriodElapsedCallback+0x170>)
 80032d8:	6adb      	ldr	r3, [r3, #44]	; 0x2c
 80032da:	63d3      	str	r3, [r2, #60]	; 0x3c
 80032dc:	e01b      	b.n	8003316 <HAL_TIM_PeriodElapsedCallback+0x122>
				}
				else
				{
					PWM_PULSE = ((-1) * difference_in_difference);
 80032de:	697b      	ldr	r3, [r7, #20]
 80032e0:	425a      	negs	r2, r3
 80032e2:	4b20      	ldr	r3, [pc, #128]	; (8003364 <HAL_TIM_PeriodElapsedCallback+0x170>)
 80032e4:	63da      	str	r2, [r3, #60]	; 0x3c
 80032e6:	e016      	b.n	8003316 <HAL_TIM_PeriodElapsedCallback+0x122>
				}
			}
			else
			{
				if(difference_in_difference > 0)
 80032e8:	697b      	ldr	r3, [r7, #20]
 80032ea:	2b00      	cmp	r3, #0
 80032ec:	dd10      	ble.n	8003310 <HAL_TIM_PeriodElapsedCallback+0x11c>
				{
					Set_Direction(INCREASE);
 80032ee:	2001      	movs	r0, #1
 80032f0:	f000 f8f2 	bl	80034d8 <Set_Direction>
					if(difference_in_difference > PWM_RESOLUTION)
 80032f4:	4b1b      	ldr	r3, [pc, #108]	; (8003364 <HAL_TIM_PeriodElapsedCallback+0x170>)
 80032f6:	6ada      	ldr	r2, [r3, #44]	; 0x2c
 80032f8:	697b      	ldr	r3, [r7, #20]
 80032fa:	429a      	cmp	r2, r3
 80032fc:	d204      	bcs.n	8003308 <HAL_TIM_PeriodElapsedCallback+0x114>
					{
						PWM_PULSE = PWM_RESOLUTION;
 80032fe:	4b19      	ldr	r3, [pc, #100]	; (8003364 <HAL_TIM_PeriodElapsedCallback+0x170>)
 8003300:	4a18      	ldr	r2, [pc, #96]	; (8003364 <HAL_TIM_PeriodElapsedCallback+0x170>)
 8003302:	6adb      	ldr	r3, [r3, #44]	; 0x2c
 8003304:	63d3      	str	r3, [r2, #60]	; 0x3c
 8003306:	e006      	b.n	8003316 <HAL_TIM_PeriodElapsedCallback+0x122>
					}
					else
					{
						PWM_PULSE = difference_in_difference;
 8003308:	4a16      	ldr	r2, [pc, #88]	; (8003364 <HAL_TIM_PeriodElapsedCallback+0x170>)
 800330a:	697b      	ldr	r3, [r7, #20]
 800330c:	63d3      	str	r3, [r2, #60]	; 0x3c
 800330e:	e002      	b.n	8003316 <HAL_TIM_PeriodElapsedCallback+0x122>
					}
				}
				else
				{
					PWM_PULSE = 0;
 8003310:	4b14      	ldr	r3, [pc, #80]	; (8003364 <HAL_TIM_PeriodElapsedCallback+0x170>)
 8003312:	2200      	movs	r2, #0
 8003314:	63da      	str	r2, [r3, #60]	; 0x3c
				}
			}

#ifdef DO_DELAY_BETWEEN_ITERATIONS
			if (iteration < NUMBER_OF_DELAYS)
 8003316:	4b16      	ldr	r3, [pc, #88]	; (8003370 <HAL_TIM_PeriodElapsedCallback+0x17c>)
 8003318:	881b      	ldrh	r3, [r3, #0]
 800331a:	2b03      	cmp	r3, #3
 800331c:	d803      	bhi.n	8003326 <HAL_TIM_PeriodElapsedCallback+0x132>
			{
				PWM_PULSE = 0;
 800331e:	4b11      	ldr	r3, [pc, #68]	; (8003364 <HAL_TIM_PeriodElapsedCallback+0x170>)
 8003320:	2200      	movs	r2, #0
 8003322:	63da      	str	r2, [r3, #60]	; 0x3c
			if (iteration < NUMBER_OF_DELAYS)
 8003324:	e00b      	b.n	800333e <HAL_TIM_PeriodElapsedCallback+0x14a>
			}
			else
			{
				if (NUMBER_OF_DELAYS == iteration)
 8003326:	4b12      	ldr	r3, [pc, #72]	; (8003370 <HAL_TIM_PeriodElapsedCallback+0x17c>)
 8003328:	881b      	ldrh	r3, [r3, #0]
 800332a:	2b04      	cmp	r3, #4
 800332c:	d107      	bne.n	800333e <HAL_TIM_PeriodElapsedCallback+0x14a>
				{
					iteration = 0;
 800332e:	4b10      	ldr	r3, [pc, #64]	; (8003370 <HAL_TIM_PeriodElapsedCallback+0x17c>)
 8003330:	2200      	movs	r2, #0
 8003332:	801a      	strh	r2, [r3, #0]
			if (iteration < NUMBER_OF_DELAYS)
 8003334:	e003      	b.n	800333e <HAL_TIM_PeriodElapsedCallback+0x14a>
			}
#endif
		}//if((ON == STATE) && (MAX_ALLOWED_RPM_DIFFERENCE <= tmp_variable))
		else	//OFF == STATE
		{
			PWM_PULSE = 0;
 8003336:	4b0b      	ldr	r3, [pc, #44]	; (8003364 <HAL_TIM_PeriodElapsedCallback+0x170>)
 8003338:	2200      	movs	r2, #0
 800333a:	63da      	str	r2, [r3, #60]	; 0x3c
		}
	}
}
 800333c:	e000      	b.n	8003340 <HAL_TIM_PeriodElapsedCallback+0x14c>
			if (iteration < NUMBER_OF_DELAYS)
 800333e:	bf00      	nop
}
 8003340:	bf00      	nop
 8003342:	3718      	adds	r7, #24
 8003344:	46bd      	mov	sp, r7
 8003346:	bd80      	pop	{r7, pc}
 8003348:	2000014c 	.word	0x2000014c
 800334c:	20000038 	.word	0x20000038
 8003350:	200000cc 	.word	0x200000cc
 8003354:	20000034 	.word	0x20000034
 8003358:	20000008 	.word	0x20000008
 800335c:	20000040 	.word	0x20000040
 8003360:	2000003c 	.word	0x2000003c
 8003364:	40000400 	.word	0x40000400
 8003368:	20000044 	.word	0x20000044
 800336c:	40010c00 	.word	0x40010c00
 8003370:	20000048 	.word	0x20000048
 8003374:	40011000 	.word	0x40011000

08003378 <HAL_GPIO_EXTI_Callback>:

void HAL_GPIO_EXTI_Callback(uint16_t GPIO_Pin)
{
 8003378:	b580      	push	{r7, lr}
 800337a:	b082      	sub	sp, #8
 800337c:	af00      	add	r7, sp, #0
 800337e:	4603      	mov	r3, r0
 8003380:	80fb      	strh	r3, [r7, #6]
	if(RPM_Pin == GPIO_Pin)
 8003382:	88fb      	ldrh	r3, [r7, #6]
 8003384:	f5b3 7f80 	cmp.w	r3, #256	; 0x100
 8003388:	d105      	bne.n	8003396 <HAL_GPIO_EXTI_Callback+0x1e>
	{
		++RPM_counter;
 800338a:	4b12      	ldr	r3, [pc, #72]	; (80033d4 <HAL_GPIO_EXTI_Callback+0x5c>)
 800338c:	681b      	ldr	r3, [r3, #0]
 800338e:	3301      	adds	r3, #1
 8003390:	4a10      	ldr	r2, [pc, #64]	; (80033d4 <HAL_GPIO_EXTI_Callback+0x5c>)
 8003392:	6013      	str	r3, [r2, #0]
			{
				ErrorCode = EXT_INTERRUPT_NOT_RECOGNIZED;
			}
		}
	}
}
 8003394:	e019      	b.n	80033ca <HAL_GPIO_EXTI_Callback+0x52>
		if((BRAKE_Pin == GPIO_Pin) || (CLUTCH_Pin == GPIO_Pin))
 8003396:	88fb      	ldrh	r3, [r7, #6]
 8003398:	f5b3 5f00 	cmp.w	r3, #8192	; 0x2000
 800339c:	d003      	beq.n	80033a6 <HAL_GPIO_EXTI_Callback+0x2e>
 800339e:	88fb      	ldrh	r3, [r7, #6]
 80033a0:	f5b3 4f80 	cmp.w	r3, #16384	; 0x4000
 80033a4:	d108      	bne.n	80033b8 <HAL_GPIO_EXTI_Callback+0x40>
			STATE = OFF;
 80033a6:	4b0c      	ldr	r3, [pc, #48]	; (80033d8 <HAL_GPIO_EXTI_Callback+0x60>)
 80033a8:	2200      	movs	r2, #0
 80033aa:	701a      	strb	r2, [r3, #0]
			Set_Electromagnes_Off();
 80033ac:	f000 f8e4 	bl	8003578 <Set_Electromagnes_Off>
			Set_Direction(NOTHING);
 80033b0:	2000      	movs	r0, #0
 80033b2:	f000 f891 	bl	80034d8 <Set_Direction>
}
 80033b6:	e008      	b.n	80033ca <HAL_GPIO_EXTI_Callback+0x52>
			if(ENCODER_BUTTON_Pin == GPIO_Pin)
 80033b8:	88fb      	ldrh	r3, [r7, #6]
 80033ba:	2b04      	cmp	r3, #4
 80033bc:	d102      	bne.n	80033c4 <HAL_GPIO_EXTI_Callback+0x4c>
				Encoder_Button_Function();
 80033be:	f000 f86b 	bl	8003498 <Encoder_Button_Function>
}
 80033c2:	e002      	b.n	80033ca <HAL_GPIO_EXTI_Callback+0x52>
				ErrorCode = EXT_INTERRUPT_NOT_RECOGNIZED;
 80033c4:	4b05      	ldr	r3, [pc, #20]	; (80033dc <HAL_GPIO_EXTI_Callback+0x64>)
 80033c6:	2202      	movs	r2, #2
 80033c8:	701a      	strb	r2, [r3, #0]
}
 80033ca:	bf00      	nop
 80033cc:	3708      	adds	r7, #8
 80033ce:	46bd      	mov	sp, r7
 80033d0:	bd80      	pop	{r7, pc}
 80033d2:	bf00      	nop
 80033d4:	20000034 	.word	0x20000034
 80033d8:	2000003c 	.word	0x2000003c
 80033dc:	20000032 	.word	0x20000032

080033e0 <CPU_Temp_Handling>:
//}

/*********** HERE END INTERRUPTS FUNCTIONS AND MY FUNCTIONS BEGIN ***********/

void CPU_Temp_Handling(void)
{
 80033e0:	b480      	push	{r7}
 80033e2:	af00      	add	r7, sp, #0
	Temperature = (int16_t)(((TEMP_SENSOR_COEFF1 - 33 * (int32_t)ADC1_results[0]))/TEMP_SENSOR_COEFF2) + 25;
 80033e4:	4b11      	ldr	r3, [pc, #68]	; (800342c <CPU_Temp_Handling+0x4c>)
 80033e6:	681b      	ldr	r3, [r3, #0]
 80033e8:	461a      	mov	r2, r3
 80033ea:	4613      	mov	r3, r2
 80033ec:	06db      	lsls	r3, r3, #27
 80033ee:	1a9b      	subs	r3, r3, r2
 80033f0:	015b      	lsls	r3, r3, #5
 80033f2:	1a9b      	subs	r3, r3, r2
 80033f4:	f503 4364 	add.w	r3, r3, #58368	; 0xe400
 80033f8:	33be      	adds	r3, #190	; 0xbe
 80033fa:	4a0d      	ldr	r2, [pc, #52]	; (8003430 <CPU_Temp_Handling+0x50>)
 80033fc:	fb82 1203 	smull	r1, r2, r2, r3
 8003400:	1152      	asrs	r2, r2, #5
 8003402:	17db      	asrs	r3, r3, #31
 8003404:	1ad3      	subs	r3, r2, r3
 8003406:	b29b      	uxth	r3, r3
 8003408:	3319      	adds	r3, #25
 800340a:	b29b      	uxth	r3, r3
 800340c:	b21a      	sxth	r2, r3
 800340e:	4b09      	ldr	r3, [pc, #36]	; (8003434 <CPU_Temp_Handling+0x54>)
 8003410:	801a      	strh	r2, [r3, #0]

	if(MAX_ALLOWED_CPU_TEMP <= Temperature)
 8003412:	4b08      	ldr	r3, [pc, #32]	; (8003434 <CPU_Temp_Handling+0x54>)
 8003414:	881b      	ldrh	r3, [r3, #0]
 8003416:	b21b      	sxth	r3, r3
 8003418:	2b59      	cmp	r3, #89	; 0x59
 800341a:	dd02      	ble.n	8003422 <CPU_Temp_Handling+0x42>
	{
		ErrorCode = CPU_TOO_HOT;
 800341c:	4b06      	ldr	r3, [pc, #24]	; (8003438 <CPU_Temp_Handling+0x58>)
 800341e:	2201      	movs	r2, #1
 8003420:	701a      	strb	r2, [r3, #0]
	}
}
 8003422:	bf00      	nop
 8003424:	46bd      	mov	sp, r7
 8003426:	bc80      	pop	{r7}
 8003428:	4770      	bx	lr
 800342a:	bf00      	nop
 800342c:	2000002c 	.word	0x2000002c
 8003430:	2e8ba2e9 	.word	0x2e8ba2e9
 8003434:	20000030 	.word	0x20000030
 8003438:	20000032 	.word	0x20000032

0800343c <Error_Handling>:

void Error_Handling(void)
{
 800343c:	b580      	push	{r7, lr}
 800343e:	af00      	add	r7, sp, #0
	HAL_GPIO_WritePin(LED_ERROR_GPIO_Port, LED_ERROR_Pin, SET);
 8003440:	2201      	movs	r2, #1
 8003442:	f44f 4100 	mov.w	r1, #32768	; 0x8000
 8003446:	4811      	ldr	r0, [pc, #68]	; (800348c <Error_Handling+0x50>)
 8003448:	f7fd ffb2 	bl	80013b0 <HAL_GPIO_WritePin>

	switch (ErrorCode)
 800344c:	4b10      	ldr	r3, [pc, #64]	; (8003490 <Error_Handling+0x54>)
 800344e:	781b      	ldrb	r3, [r3, #0]
 8003450:	b2db      	uxtb	r3, r3
 8003452:	2b01      	cmp	r3, #1
 8003454:	d002      	beq.n	800345c <Error_Handling+0x20>
 8003456:	2b02      	cmp	r3, #2
 8003458:	d010      	beq.n	800347c <Error_Handling+0x40>
 800345a:	e013      	b.n	8003484 <Error_Handling+0x48>
	{
		case CPU_TOO_HOT:
		{
			Complete_Shutdown();
 800345c:	f000 f898 	bl	8003590 <Complete_Shutdown>
			BuzzerSounds = OVERHEAT;
 8003460:	4b0c      	ldr	r3, [pc, #48]	; (8003494 <Error_Handling+0x58>)
 8003462:	2201      	movs	r2, #1
 8003464:	701a      	strb	r2, [r3, #0]
			HAL_Delay(DELAY_TIME_AFTER_OVERHEAT_IN_MS);
 8003466:	f44f 60fa 	mov.w	r0, #2000	; 0x7d0
 800346a:	f7fc fed1 	bl	8000210 <HAL_Delay>
			BuzzerSounds = NO_SOUND;
 800346e:	4b09      	ldr	r3, [pc, #36]	; (8003494 <Error_Handling+0x58>)
 8003470:	2200      	movs	r2, #0
 8003472:	701a      	strb	r2, [r3, #0]
			ErrorCode = 0;
 8003474:	4b06      	ldr	r3, [pc, #24]	; (8003490 <Error_Handling+0x54>)
 8003476:	2200      	movs	r2, #0
 8003478:	701a      	strb	r2, [r3, #0]
			break;
 800347a:	e005      	b.n	8003488 <Error_Handling+0x4c>
		}
		case EXT_INTERRUPT_NOT_RECOGNIZED:
		{
			ErrorCode = 0;
 800347c:	4b04      	ldr	r3, [pc, #16]	; (8003490 <Error_Handling+0x54>)
 800347e:	2200      	movs	r2, #0
 8003480:	701a      	strb	r2, [r3, #0]
			break;
 8003482:	e001      	b.n	8003488 <Error_Handling+0x4c>
		}
		default:
		{
			NVIC_SystemReset();
 8003484:	f7ff fdc4 	bl	8003010 <__NVIC_SystemReset>
			break;
		}
	}
}
 8003488:	bf00      	nop
 800348a:	bd80      	pop	{r7, pc}
 800348c:	40011000 	.word	0x40011000
 8003490:	20000032 	.word	0x20000032
 8003494:	20000033 	.word	0x20000033

08003498 <Encoder_Button_Function>:

void Encoder_Button_Function(void)
{
 8003498:	b580      	push	{r7, lr}
 800349a:	af00      	add	r7, sp, #0
	if(NO_SOUND == BuzzerSounds)
 800349c:	4b0c      	ldr	r3, [pc, #48]	; (80034d0 <Encoder_Button_Function+0x38>)
 800349e:	781b      	ldrb	r3, [r3, #0]
 80034a0:	b2db      	uxtb	r3, r3
 80034a2:	2b00      	cmp	r3, #0
 80034a4:	d102      	bne.n	80034ac <Encoder_Button_Function+0x14>
	{
		BuzzerSounds = BUTTON_CLICK;
 80034a6:	4b0a      	ldr	r3, [pc, #40]	; (80034d0 <Encoder_Button_Function+0x38>)
 80034a8:	2202      	movs	r2, #2
 80034aa:	701a      	strb	r2, [r3, #0]
	}

	if(ON == STATE)
 80034ac:	4b09      	ldr	r3, [pc, #36]	; (80034d4 <Encoder_Button_Function+0x3c>)
 80034ae:	781b      	ldrb	r3, [r3, #0]
 80034b0:	b2db      	uxtb	r3, r3
 80034b2:	2b01      	cmp	r3, #1
 80034b4:	d105      	bne.n	80034c2 <Encoder_Button_Function+0x2a>
	{
		STATE = OFF;
 80034b6:	4b07      	ldr	r3, [pc, #28]	; (80034d4 <Encoder_Button_Function+0x3c>)
 80034b8:	2200      	movs	r2, #0
 80034ba:	701a      	strb	r2, [r3, #0]
		Set_Electromagnes_Off();
 80034bc:	f000 f85c 	bl	8003578 <Set_Electromagnes_Off>
	else
	{
		STATE = ON;
		Set_Electromagnes_On();
	}
}
 80034c0:	e004      	b.n	80034cc <Encoder_Button_Function+0x34>
		STATE = ON;
 80034c2:	4b04      	ldr	r3, [pc, #16]	; (80034d4 <Encoder_Button_Function+0x3c>)
 80034c4:	2201      	movs	r2, #1
 80034c6:	701a      	strb	r2, [r3, #0]
		Set_Electromagnes_On();
 80034c8:	f000 f84a 	bl	8003560 <Set_Electromagnes_On>
}
 80034cc:	bf00      	nop
 80034ce:	bd80      	pop	{r7, pc}
 80034d0:	20000033 	.word	0x20000033
 80034d4:	2000003c 	.word	0x2000003c

080034d8 <Set_Direction>:

void Set_Direction(DIRECTION direction)
{
 80034d8:	b580      	push	{r7, lr}
 80034da:	b082      	sub	sp, #8
 80034dc:	af00      	add	r7, sp, #0
 80034de:	4603      	mov	r3, r0
 80034e0:	71fb      	strb	r3, [r7, #7]
	switch (direction)
 80034e2:	f997 3007 	ldrsb.w	r3, [r7, #7]
 80034e6:	2b00      	cmp	r3, #0
 80034e8:	d01c      	beq.n	8003524 <Set_Direction+0x4c>
 80034ea:	2b01      	cmp	r3, #1
 80034ec:	d00e      	beq.n	800350c <Set_Direction+0x34>
 80034ee:	f1b3 3fff 	cmp.w	r3, #4294967295
 80034f2:	d123      	bne.n	800353c <Set_Direction+0x64>
	{
		case DECREASE:
		{
			HAL_GPIO_WritePin(INCREASE_ENG_TERMINAL_PORT, INCREASE_ENG_TERMINAL_PIN, RESET);
 80034f4:	2200      	movs	r2, #0
 80034f6:	f44f 6180 	mov.w	r1, #1024	; 0x400
 80034fa:	4818      	ldr	r0, [pc, #96]	; (800355c <Set_Direction+0x84>)
 80034fc:	f7fd ff58 	bl	80013b0 <HAL_GPIO_WritePin>
			HAL_GPIO_WritePin(DECREASE_ENG_TERMINAL_PORT, DECREASE_ENG_TERMINAL_PIN, SET);
 8003500:	2201      	movs	r2, #1
 8003502:	2104      	movs	r1, #4
 8003504:	4815      	ldr	r0, [pc, #84]	; (800355c <Set_Direction+0x84>)
 8003506:	f7fd ff53 	bl	80013b0 <HAL_GPIO_WritePin>
			break;
 800350a:	e023      	b.n	8003554 <Set_Direction+0x7c>
		}
		case INCREASE:
		{
			HAL_GPIO_WritePin(INCREASE_ENG_TERMINAL_PORT, INCREASE_ENG_TERMINAL_PIN, SET);
 800350c:	2201      	movs	r2, #1
 800350e:	f44f 6180 	mov.w	r1, #1024	; 0x400
 8003512:	4812      	ldr	r0, [pc, #72]	; (800355c <Set_Direction+0x84>)
 8003514:	f7fd ff4c 	bl	80013b0 <HAL_GPIO_WritePin>
			HAL_GPIO_WritePin(DECREASE_ENG_TERMINAL_PORT, DECREASE_ENG_TERMINAL_PIN, RESET);
 8003518:	2200      	movs	r2, #0
 800351a:	2104      	movs	r1, #4
 800351c:	480f      	ldr	r0, [pc, #60]	; (800355c <Set_Direction+0x84>)
 800351e:	f7fd ff47 	bl	80013b0 <HAL_GPIO_WritePin>
			break;
 8003522:	e017      	b.n	8003554 <Set_Direction+0x7c>
		}
		case NOTHING:
		{
			HAL_GPIO_WritePin(INCREASE_ENG_TERMINAL_PORT, INCREASE_ENG_TERMINAL_PIN, RESET);
 8003524:	2200      	movs	r2, #0
 8003526:	f44f 6180 	mov.w	r1, #1024	; 0x400
 800352a:	480c      	ldr	r0, [pc, #48]	; (800355c <Set_Direction+0x84>)
 800352c:	f7fd ff40 	bl	80013b0 <HAL_GPIO_WritePin>
			HAL_GPIO_WritePin(DECREASE_ENG_TERMINAL_PORT, DECREASE_ENG_TERMINAL_PIN, RESET);
 8003530:	2200      	movs	r2, #0
 8003532:	2104      	movs	r1, #4
 8003534:	4809      	ldr	r0, [pc, #36]	; (800355c <Set_Direction+0x84>)
 8003536:	f7fd ff3b 	bl	80013b0 <HAL_GPIO_WritePin>
			break;
 800353a:	e00b      	b.n	8003554 <Set_Direction+0x7c>
		}
		default:
		{
			HAL_GPIO_WritePin(INCREASE_ENG_TERMINAL_PORT, INCREASE_ENG_TERMINAL_PIN, RESET);
 800353c:	2200      	movs	r2, #0
 800353e:	f44f 6180 	mov.w	r1, #1024	; 0x400
 8003542:	4806      	ldr	r0, [pc, #24]	; (800355c <Set_Direction+0x84>)
 8003544:	f7fd ff34 	bl	80013b0 <HAL_GPIO_WritePin>
			HAL_GPIO_WritePin(DECREASE_ENG_TERMINAL_PORT, DECREASE_ENG_TERMINAL_PIN, RESET);
 8003548:	2200      	movs	r2, #0
 800354a:	2104      	movs	r1, #4
 800354c:	4803      	ldr	r0, [pc, #12]	; (800355c <Set_Direction+0x84>)
 800354e:	f7fd ff2f 	bl	80013b0 <HAL_GPIO_WritePin>
			break;
 8003552:	bf00      	nop
		}
	}
}
 8003554:	bf00      	nop
 8003556:	3708      	adds	r7, #8
 8003558:	46bd      	mov	sp, r7
 800355a:	bd80      	pop	{r7, pc}
 800355c:	40010c00 	.word	0x40010c00

08003560 <Set_Electromagnes_On>:

void Set_Electromagnes_On(void)
{
 8003560:	b580      	push	{r7, lr}
 8003562:	af00      	add	r7, sp, #0
	HAL_GPIO_WritePin(EN_EMAG_GPIO_Port, EN_EMAG_Pin, SET);
 8003564:	2201      	movs	r2, #1
 8003566:	f44f 6100 	mov.w	r1, #2048	; 0x800
 800356a:	4802      	ldr	r0, [pc, #8]	; (8003574 <Set_Electromagnes_On+0x14>)
 800356c:	f7fd ff20 	bl	80013b0 <HAL_GPIO_WritePin>
}
 8003570:	bf00      	nop
 8003572:	bd80      	pop	{r7, pc}
 8003574:	40010c00 	.word	0x40010c00

08003578 <Set_Electromagnes_Off>:

void Set_Electromagnes_Off(void)
{
 8003578:	b580      	push	{r7, lr}
 800357a:	af00      	add	r7, sp, #0
	HAL_GPIO_WritePin(EN_EMAG_GPIO_Port, EN_EMAG_Pin, RESET);
 800357c:	2200      	movs	r2, #0
 800357e:	f44f 6100 	mov.w	r1, #2048	; 0x800
 8003582:	4802      	ldr	r0, [pc, #8]	; (800358c <Set_Electromagnes_Off+0x14>)
 8003584:	f7fd ff14 	bl	80013b0 <HAL_GPIO_WritePin>
}
 8003588:	bf00      	nop
 800358a:	bd80      	pop	{r7, pc}
 800358c:	40010c00 	.word	0x40010c00

08003590 <Complete_Shutdown>:

void Complete_Shutdown(void)
{
 8003590:	b580      	push	{r7, lr}
 8003592:	af00      	add	r7, sp, #0
	STATE = OFF;
 8003594:	4b04      	ldr	r3, [pc, #16]	; (80035a8 <Complete_Shutdown+0x18>)
 8003596:	2200      	movs	r2, #0
 8003598:	701a      	strb	r2, [r3, #0]
	Set_Electromagnes_Off();
 800359a:	f7ff ffed 	bl	8003578 <Set_Electromagnes_Off>
	Set_Direction(NOTHING);
 800359e:	2000      	movs	r0, #0
 80035a0:	f7ff ff9a 	bl	80034d8 <Set_Direction>
}
 80035a4:	bf00      	nop
 80035a6:	bd80      	pop	{r7, pc}
 80035a8:	2000003c 	.word	0x2000003c

080035ac <Update_Encoder_Settings>:

void Update_Encoder_Settings(void)
{
 80035ac:	b480      	push	{r7}
 80035ae:	b085      	sub	sp, #20
 80035b0:	af00      	add	r7, sp, #0
	static uint32_t lastEncValue = 0;
	uint32_t encCounterValue = (TIM2->CNT);
 80035b2:	f04f 4380 	mov.w	r3, #1073741824	; 0x40000000
 80035b6:	6a5b      	ldr	r3, [r3, #36]	; 0x24
 80035b8:	60fb      	str	r3, [r7, #12]
	int32_t encDiff = encCounterValue - lastEncValue;
 80035ba:	4b1d      	ldr	r3, [pc, #116]	; (8003630 <Update_Encoder_Settings+0x84>)
 80035bc:	681b      	ldr	r3, [r3, #0]
 80035be:	68fa      	ldr	r2, [r7, #12]
 80035c0:	1ad3      	subs	r3, r2, r3
 80035c2:	60bb      	str	r3, [r7, #8]
	uint32_t TEMP_Set_RPM = Set_RPM;
 80035c4:	4b1b      	ldr	r3, [pc, #108]	; (8003634 <Update_Encoder_Settings+0x88>)
 80035c6:	681b      	ldr	r3, [r3, #0]
 80035c8:	607b      	str	r3, [r7, #4]

	if ((encDiff >= 4u) || (encDiff <= -4))
 80035ca:	68bb      	ldr	r3, [r7, #8]
 80035cc:	2b03      	cmp	r3, #3
 80035ce:	d803      	bhi.n	80035d8 <Update_Encoder_Settings+0x2c>
 80035d0:	68bb      	ldr	r3, [r7, #8]
 80035d2:	f113 0f03 	cmn.w	r3, #3
 80035d6:	da26      	bge.n	8003626 <Update_Encoder_Settings+0x7a>
	{
		encDiff /= 4u;
 80035d8:	68bb      	ldr	r3, [r7, #8]
 80035da:	089b      	lsrs	r3, r3, #2
 80035dc:	60bb      	str	r3, [r7, #8]
		TEMP_Set_RPM += (uint32_t)(((int8_t)(encDiff)) * ENCODER_RPM_SETTING_STEP);
 80035de:	68bb      	ldr	r3, [r7, #8]
 80035e0:	b25b      	sxtb	r3, r3
 80035e2:	461a      	mov	r2, r3
 80035e4:	4613      	mov	r3, r2
 80035e6:	009b      	lsls	r3, r3, #2
 80035e8:	4413      	add	r3, r2
 80035ea:	005b      	lsls	r3, r3, #1
 80035ec:	461a      	mov	r2, r3
 80035ee:	687b      	ldr	r3, [r7, #4]
 80035f0:	4413      	add	r3, r2
 80035f2:	607b      	str	r3, [r7, #4]

		if (TEMP_Set_RPM > MAX_ALLOWED_RPM)
 80035f4:	687b      	ldr	r3, [r7, #4]
 80035f6:	f640 52ac 	movw	r2, #3500	; 0xdac
 80035fa:	4293      	cmp	r3, r2
 80035fc:	d904      	bls.n	8003608 <Update_Encoder_Settings+0x5c>
		{
			Set_RPM = MAX_ALLOWED_RPM;
 80035fe:	4b0d      	ldr	r3, [pc, #52]	; (8003634 <Update_Encoder_Settings+0x88>)
 8003600:	f640 52ac 	movw	r2, #3500	; 0xdac
 8003604:	601a      	str	r2, [r3, #0]
 8003606:	e00b      	b.n	8003620 <Update_Encoder_Settings+0x74>
		}
		else
		{
			if (TEMP_Set_RPM < MIN_ALLOWED_RPM)
 8003608:	687b      	ldr	r3, [r7, #4]
 800360a:	f5b3 6f96 	cmp.w	r3, #1200	; 0x4b0
 800360e:	d204      	bcs.n	800361a <Update_Encoder_Settings+0x6e>
			{
				Set_RPM = MIN_ALLOWED_RPM;
 8003610:	4b08      	ldr	r3, [pc, #32]	; (8003634 <Update_Encoder_Settings+0x88>)
 8003612:	f44f 6296 	mov.w	r2, #1200	; 0x4b0
 8003616:	601a      	str	r2, [r3, #0]
 8003618:	e002      	b.n	8003620 <Update_Encoder_Settings+0x74>
			}
			else
			{
				Set_RPM = TEMP_Set_RPM;
 800361a:	4a06      	ldr	r2, [pc, #24]	; (8003634 <Update_Encoder_Settings+0x88>)
 800361c:	687b      	ldr	r3, [r7, #4]
 800361e:	6013      	str	r3, [r2, #0]
			}
		}//else

		lastEncValue = encCounterValue;
 8003620:	4a03      	ldr	r2, [pc, #12]	; (8003630 <Update_Encoder_Settings+0x84>)
 8003622:	68fb      	ldr	r3, [r7, #12]
 8003624:	6013      	str	r3, [r2, #0]
	}//if

}//void Update_Encoder_Settings(void)
 8003626:	bf00      	nop
 8003628:	3714      	adds	r7, #20
 800362a:	46bd      	mov	sp, r7
 800362c:	bc80      	pop	{r7}
 800362e:	4770      	bx	lr
 8003630:	2000004c 	.word	0x2000004c
 8003634:	20000008 	.word	0x20000008

08003638 <Make_Soud>:


void Make_Soud(void)
{
 8003638:	b580      	push	{r7, lr}
 800363a:	af00      	add	r7, sp, #0
	static uint32_t iterator = 0;

	switch(BuzzerSounds)
 800363c:	4b21      	ldr	r3, [pc, #132]	; (80036c4 <Make_Soud+0x8c>)
 800363e:	781b      	ldrb	r3, [r3, #0]
 8003640:	b2db      	uxtb	r3, r3
 8003642:	2b01      	cmp	r3, #1
 8003644:	d009      	beq.n	800365a <Make_Soud+0x22>
 8003646:	2b02      	cmp	r3, #2
 8003648:	d01a      	beq.n	8003680 <Make_Soud+0x48>
 800364a:	2b00      	cmp	r3, #0
 800364c:	d12e      	bne.n	80036ac <Make_Soud+0x74>
	{
		case NO_SOUND:
		{
			HAL_GPIO_WritePin(BUZZER_GPIO_Port, BUZZER_Pin, RESET);
 800364e:	2200      	movs	r2, #0
 8003650:	2120      	movs	r1, #32
 8003652:	481d      	ldr	r0, [pc, #116]	; (80036c8 <Make_Soud+0x90>)
 8003654:	f7fd feac 	bl	80013b0 <HAL_GPIO_WritePin>
			break;
 8003658:	e031      	b.n	80036be <Make_Soud+0x86>
		}
		case OVERHEAT:
		{
			++iterator;
 800365a:	4b1c      	ldr	r3, [pc, #112]	; (80036cc <Make_Soud+0x94>)
 800365c:	681b      	ldr	r3, [r3, #0]
 800365e:	3301      	adds	r3, #1
 8003660:	4a1a      	ldr	r2, [pc, #104]	; (80036cc <Make_Soud+0x94>)
 8003662:	6013      	str	r3, [r2, #0]
			if (iterator > OVERHEAT_BUZZER_LENGTH)
 8003664:	4b19      	ldr	r3, [pc, #100]	; (80036cc <Make_Soud+0x94>)
 8003666:	681b      	ldr	r3, [r3, #0]
 8003668:	f640 32b8 	movw	r2, #3000	; 0xbb8
 800366c:	4293      	cmp	r3, r2
 800366e:	d923      	bls.n	80036b8 <Make_Soud+0x80>
			{
				HAL_GPIO_TogglePin(BUZZER_GPIO_Port, BUZZER_Pin);
 8003670:	2120      	movs	r1, #32
 8003672:	4815      	ldr	r0, [pc, #84]	; (80036c8 <Make_Soud+0x90>)
 8003674:	f7fd feb4 	bl	80013e0 <HAL_GPIO_TogglePin>
				iterator = 0;
 8003678:	4b14      	ldr	r3, [pc, #80]	; (80036cc <Make_Soud+0x94>)
 800367a:	2200      	movs	r2, #0
 800367c:	601a      	str	r2, [r3, #0]
			}
			break;
 800367e:	e01b      	b.n	80036b8 <Make_Soud+0x80>
		}
		case BUTTON_CLICK:
		{
			HAL_GPIO_WritePin(BUZZER_GPIO_Port, BUZZER_Pin, SET);
 8003680:	2201      	movs	r2, #1
 8003682:	2120      	movs	r1, #32
 8003684:	4810      	ldr	r0, [pc, #64]	; (80036c8 <Make_Soud+0x90>)
 8003686:	f7fd fe93 	bl	80013b0 <HAL_GPIO_WritePin>
			++iterator;
 800368a:	4b10      	ldr	r3, [pc, #64]	; (80036cc <Make_Soud+0x94>)
 800368c:	681b      	ldr	r3, [r3, #0]
 800368e:	3301      	adds	r3, #1
 8003690:	4a0e      	ldr	r2, [pc, #56]	; (80036cc <Make_Soud+0x94>)
 8003692:	6013      	str	r3, [r2, #0]
			if (iterator > BUTTON_CLICK_BUZZER_LENGTH)
 8003694:	4b0d      	ldr	r3, [pc, #52]	; (80036cc <Make_Soud+0x94>)
 8003696:	681b      	ldr	r3, [r3, #0]
 8003698:	f5b3 7f96 	cmp.w	r3, #300	; 0x12c
 800369c:	d90e      	bls.n	80036bc <Make_Soud+0x84>
			{
				BuzzerSounds = NO_SOUND;
 800369e:	4b09      	ldr	r3, [pc, #36]	; (80036c4 <Make_Soud+0x8c>)
 80036a0:	2200      	movs	r2, #0
 80036a2:	701a      	strb	r2, [r3, #0]
				iterator = 0;
 80036a4:	4b09      	ldr	r3, [pc, #36]	; (80036cc <Make_Soud+0x94>)
 80036a6:	2200      	movs	r2, #0
 80036a8:	601a      	str	r2, [r3, #0]
			}
			break;
 80036aa:	e007      	b.n	80036bc <Make_Soud+0x84>
		}
		default:
		{
			HAL_GPIO_WritePin(BUZZER_GPIO_Port, BUZZER_Pin, RESET);
 80036ac:	2200      	movs	r2, #0
 80036ae:	2120      	movs	r1, #32
 80036b0:	4805      	ldr	r0, [pc, #20]	; (80036c8 <Make_Soud+0x90>)
 80036b2:	f7fd fe7d 	bl	80013b0 <HAL_GPIO_WritePin>
			break;
 80036b6:	e002      	b.n	80036be <Make_Soud+0x86>
			break;
 80036b8:	bf00      	nop
 80036ba:	e000      	b.n	80036be <Make_Soud+0x86>
			break;
 80036bc:	bf00      	nop
		}
	}
}
 80036be:	bf00      	nop
 80036c0:	bd80      	pop	{r7, pc}
 80036c2:	bf00      	nop
 80036c4:	20000033 	.word	0x20000033
 80036c8:	40010800 	.word	0x40010800
 80036cc:	20000050 	.word	0x20000050

080036d0 <Error_Handler>:
/**
  * @brief  This function is executed in case of error occurrence.
  * @retval None
  */
void Error_Handler(void)
{
 80036d0:	b480      	push	{r7}
 80036d2:	af00      	add	r7, sp, #0
  /* USER CODE BEGIN Error_Handler_Debug */
  /* User can add his own implementation to report the HAL error return state */

  /* USER CODE END Error_Handler_Debug */
}
 80036d4:	bf00      	nop
 80036d6:	46bd      	mov	sp, r7
 80036d8:	bc80      	pop	{r7}
 80036da:	4770      	bx	lr

080036dc <HAL_MspInit>:
 80036dc:	b480      	push	{r7}
 80036de:	b085      	sub	sp, #20
 80036e0:	af00      	add	r7, sp, #0
 80036e2:	4b15      	ldr	r3, [pc, #84]	; (8003738 <HAL_MspInit+0x5c>)
 80036e4:	699b      	ldr	r3, [r3, #24]
 80036e6:	4a14      	ldr	r2, [pc, #80]	; (8003738 <HAL_MspInit+0x5c>)
 80036e8:	f043 0301 	orr.w	r3, r3, #1
 80036ec:	6193      	str	r3, [r2, #24]
 80036ee:	4b12      	ldr	r3, [pc, #72]	; (8003738 <HAL_MspInit+0x5c>)
 80036f0:	699b      	ldr	r3, [r3, #24]
 80036f2:	f003 0301 	and.w	r3, r3, #1
 80036f6:	60bb      	str	r3, [r7, #8]
 80036f8:	68bb      	ldr	r3, [r7, #8]
 80036fa:	4b0f      	ldr	r3, [pc, #60]	; (8003738 <HAL_MspInit+0x5c>)
 80036fc:	69db      	ldr	r3, [r3, #28]
 80036fe:	4a0e      	ldr	r2, [pc, #56]	; (8003738 <HAL_MspInit+0x5c>)
 8003700:	f043 5380 	orr.w	r3, r3, #268435456	; 0x10000000
 8003704:	61d3      	str	r3, [r2, #28]
 8003706:	4b0c      	ldr	r3, [pc, #48]	; (8003738 <HAL_MspInit+0x5c>)
 8003708:	69db      	ldr	r3, [r3, #28]
 800370a:	f003 5380 	and.w	r3, r3, #268435456	; 0x10000000
 800370e:	607b      	str	r3, [r7, #4]
 8003710:	687b      	ldr	r3, [r7, #4]
 8003712:	4b0a      	ldr	r3, [pc, #40]	; (800373c <HAL_MspInit+0x60>)
 8003714:	685b      	ldr	r3, [r3, #4]
 8003716:	60fb      	str	r3, [r7, #12]
 8003718:	68fb      	ldr	r3, [r7, #12]
 800371a:	f023 63e0 	bic.w	r3, r3, #117440512	; 0x7000000
 800371e:	60fb      	str	r3, [r7, #12]
 8003720:	68fb      	ldr	r3, [r7, #12]
 8003722:	f043 7300 	orr.w	r3, r3, #33554432	; 0x2000000
 8003726:	60fb      	str	r3, [r7, #12]
 8003728:	4a04      	ldr	r2, [pc, #16]	; (800373c <HAL_MspInit+0x60>)
 800372a:	68fb      	ldr	r3, [r7, #12]
 800372c:	6053      	str	r3, [r2, #4]
 800372e:	bf00      	nop
 8003730:	3714      	adds	r7, #20
 8003732:	46bd      	mov	sp, r7
 8003734:	bc80      	pop	{r7}
 8003736:	4770      	bx	lr
 8003738:	40021000 	.word	0x40021000
 800373c:	40010000 	.word	0x40010000

08003740 <NMI_Handler>:
 8003740:	b480      	push	{r7}
 8003742:	af00      	add	r7, sp, #0
 8003744:	bf00      	nop
 8003746:	46bd      	mov	sp, r7
 8003748:	bc80      	pop	{r7}
 800374a:	4770      	bx	lr

0800374c <HardFault_Handler>:
 800374c:	b480      	push	{r7}
 800374e:	af00      	add	r7, sp, #0
 8003750:	e7fe      	b.n	8003750 <HardFault_Handler+0x4>

08003752 <MemManage_Handler>:
 8003752:	b480      	push	{r7}
 8003754:	af00      	add	r7, sp, #0
 8003756:	e7fe      	b.n	8003756 <MemManage_Handler+0x4>

08003758 <BusFault_Handler>:
 8003758:	b480      	push	{r7}
 800375a:	af00      	add	r7, sp, #0
 800375c:	e7fe      	b.n	800375c <BusFault_Handler+0x4>

0800375e <UsageFault_Handler>:
 800375e:	b480      	push	{r7}
 8003760:	af00      	add	r7, sp, #0
 8003762:	e7fe      	b.n	8003762 <UsageFault_Handler+0x4>

08003764 <SVC_Handler>:
 8003764:	b480      	push	{r7}
 8003766:	af00      	add	r7, sp, #0
 8003768:	bf00      	nop
 800376a:	46bd      	mov	sp, r7
 800376c:	bc80      	pop	{r7}
 800376e:	4770      	bx	lr

08003770 <DebugMon_Handler>:
 8003770:	b480      	push	{r7}
 8003772:	af00      	add	r7, sp, #0
 8003774:	bf00      	nop
 8003776:	46bd      	mov	sp, r7
 8003778:	bc80      	pop	{r7}
 800377a:	4770      	bx	lr

0800377c <PendSV_Handler>:
 800377c:	b480      	push	{r7}
 800377e:	af00      	add	r7, sp, #0
 8003780:	bf00      	nop
 8003782:	46bd      	mov	sp, r7
 8003784:	bc80      	pop	{r7}
 8003786:	4770      	bx	lr

08003788 <SysTick_Handler>:
 8003788:	b580      	push	{r7, lr}
 800378a:	af00      	add	r7, sp, #0
 800378c:	f7fc fd24 	bl	80001d8 <HAL_IncTick>
 8003790:	bf00      	nop
 8003792:	bd80      	pop	{r7, pc}

08003794 <EXTI2_IRQHandler>:
 8003794:	b580      	push	{r7, lr}
 8003796:	af00      	add	r7, sp, #0
 8003798:	2004      	movs	r0, #4
 800379a:	f7fd fe39 	bl	8001410 <HAL_GPIO_EXTI_IRQHandler>
 800379e:	bf00      	nop
 80037a0:	bd80      	pop	{r7, pc}
	...

080037a4 <DMA1_Channel1_IRQHandler>:
 80037a4:	b580      	push	{r7, lr}
 80037a6:	af00      	add	r7, sp, #0
 80037a8:	4802      	ldr	r0, [pc, #8]	; (80037b4 <DMA1_Channel1_IRQHandler+0x10>)
 80037aa:	f7fd fb73 	bl	8000e94 <HAL_DMA_IRQHandler>
 80037ae:	bf00      	nop
 80037b0:	bd80      	pop	{r7, pc}
 80037b2:	bf00      	nop
 80037b4:	20000088 	.word	0x20000088

080037b8 <EXTI9_5_IRQHandler>:
 80037b8:	b580      	push	{r7, lr}
 80037ba:	af00      	add	r7, sp, #0
 80037bc:	f44f 7080 	mov.w	r0, #256	; 0x100
 80037c0:	f7fd fe26 	bl	8001410 <HAL_GPIO_EXTI_IRQHandler>
 80037c4:	bf00      	nop
 80037c6:	bd80      	pop	{r7, pc}

080037c8 <TIM1_UP_IRQHandler>:
 80037c8:	b580      	push	{r7, lr}
 80037ca:	af00      	add	r7, sp, #0
 80037cc:	4802      	ldr	r0, [pc, #8]	; (80037d8 <TIM1_UP_IRQHandler+0x10>)
 80037ce:	f7fe fd0d 	bl	80021ec <HAL_TIM_IRQHandler>
 80037d2:	bf00      	nop
 80037d4:	bd80      	pop	{r7, pc}
 80037d6:	bf00      	nop
 80037d8:	2000014c 	.word	0x2000014c

080037dc <TIM4_IRQHandler>:
 80037dc:	b580      	push	{r7, lr}
 80037de:	af00      	add	r7, sp, #0
 80037e0:	4802      	ldr	r0, [pc, #8]	; (80037ec <TIM4_IRQHandler+0x10>)
 80037e2:	f7fe fd03 	bl	80021ec <HAL_TIM_IRQHandler>
 80037e6:	bf00      	nop
 80037e8:	bd80      	pop	{r7, pc}
 80037ea:	bf00      	nop
 80037ec:	200000cc 	.word	0x200000cc

080037f0 <EXTI15_10_IRQHandler>:
 80037f0:	b580      	push	{r7, lr}
 80037f2:	af00      	add	r7, sp, #0
 80037f4:	f44f 5000 	mov.w	r0, #8192	; 0x2000
 80037f8:	f7fd fe0a 	bl	8001410 <HAL_GPIO_EXTI_IRQHandler>
 80037fc:	f44f 4080 	mov.w	r0, #16384	; 0x4000
 8003800:	f7fd fe06 	bl	8001410 <HAL_GPIO_EXTI_IRQHandler>
 8003804:	bf00      	nop
 8003806:	bd80      	pop	{r7, pc}

08003808 <SystemInit>:
 8003808:	b480      	push	{r7}
 800380a:	af00      	add	r7, sp, #0
 800380c:	4b15      	ldr	r3, [pc, #84]	; (8003864 <SystemInit+0x5c>)
 800380e:	681b      	ldr	r3, [r3, #0]
 8003810:	4a14      	ldr	r2, [pc, #80]	; (8003864 <SystemInit+0x5c>)
 8003812:	f043 0301 	orr.w	r3, r3, #1
 8003816:	6013      	str	r3, [r2, #0]
 8003818:	4b12      	ldr	r3, [pc, #72]	; (8003864 <SystemInit+0x5c>)
 800381a:	685a      	ldr	r2, [r3, #4]
 800381c:	4911      	ldr	r1, [pc, #68]	; (8003864 <SystemInit+0x5c>)
 800381e:	4b12      	ldr	r3, [pc, #72]	; (8003868 <SystemInit+0x60>)
 8003820:	4013      	ands	r3, r2
 8003822:	604b      	str	r3, [r1, #4]
 8003824:	4b0f      	ldr	r3, [pc, #60]	; (8003864 <SystemInit+0x5c>)
 8003826:	681b      	ldr	r3, [r3, #0]
 8003828:	4a0e      	ldr	r2, [pc, #56]	; (8003864 <SystemInit+0x5c>)
 800382a:	f023 7384 	bic.w	r3, r3, #17301504	; 0x1080000
 800382e:	f423 3380 	bic.w	r3, r3, #65536	; 0x10000
 8003832:	6013      	str	r3, [r2, #0]
 8003834:	4b0b      	ldr	r3, [pc, #44]	; (8003864 <SystemInit+0x5c>)
 8003836:	681b      	ldr	r3, [r3, #0]
 8003838:	4a0a      	ldr	r2, [pc, #40]	; (8003864 <SystemInit+0x5c>)
 800383a:	f423 2380 	bic.w	r3, r3, #262144	; 0x40000
 800383e:	6013      	str	r3, [r2, #0]
 8003840:	4b08      	ldr	r3, [pc, #32]	; (8003864 <SystemInit+0x5c>)
 8003842:	685b      	ldr	r3, [r3, #4]
 8003844:	4a07      	ldr	r2, [pc, #28]	; (8003864 <SystemInit+0x5c>)
 8003846:	f423 03fe 	bic.w	r3, r3, #8323072	; 0x7f0000
 800384a:	6053      	str	r3, [r2, #4]
 800384c:	4b05      	ldr	r3, [pc, #20]	; (8003864 <SystemInit+0x5c>)
 800384e:	f44f 021f 	mov.w	r2, #10420224	; 0x9f0000
 8003852:	609a      	str	r2, [r3, #8]
 8003854:	4b05      	ldr	r3, [pc, #20]	; (800386c <SystemInit+0x64>)
 8003856:	f04f 6200 	mov.w	r2, #134217728	; 0x8000000
 800385a:	609a      	str	r2, [r3, #8]
 800385c:	bf00      	nop
 800385e:	46bd      	mov	sp, r7
 8003860:	bc80      	pop	{r7}
 8003862:	4770      	bx	lr
 8003864:	40021000 	.word	0x40021000
 8003868:	f8ff0000 	.word	0xf8ff0000
 800386c:	e000ed00 	.word	0xe000ed00

08003870 <MX_TIM1_Init>:
 8003870:	b580      	push	{r7, lr}
 8003872:	b086      	sub	sp, #24
 8003874:	af00      	add	r7, sp, #0
 8003876:	f107 0308 	add.w	r3, r7, #8
 800387a:	2200      	movs	r2, #0
 800387c:	601a      	str	r2, [r3, #0]
 800387e:	605a      	str	r2, [r3, #4]
 8003880:	609a      	str	r2, [r3, #8]
 8003882:	60da      	str	r2, [r3, #12]
 8003884:	463b      	mov	r3, r7
 8003886:	2200      	movs	r2, #0
 8003888:	601a      	str	r2, [r3, #0]
 800388a:	605a      	str	r2, [r3, #4]
 800388c:	4b1e      	ldr	r3, [pc, #120]	; (8003908 <MX_TIM1_Init+0x98>)
 800388e:	4a1f      	ldr	r2, [pc, #124]	; (800390c <MX_TIM1_Init+0x9c>)
 8003890:	601a      	str	r2, [r3, #0]
 8003892:	4b1d      	ldr	r3, [pc, #116]	; (8003908 <MX_TIM1_Init+0x98>)
 8003894:	f240 227f 	movw	r2, #639	; 0x27f
 8003898:	605a      	str	r2, [r3, #4]
 800389a:	4b1b      	ldr	r3, [pc, #108]	; (8003908 <MX_TIM1_Init+0x98>)
 800389c:	2200      	movs	r2, #0
 800389e:	609a      	str	r2, [r3, #8]
 80038a0:	4b19      	ldr	r3, [pc, #100]	; (8003908 <MX_TIM1_Init+0x98>)
 80038a2:	2209      	movs	r2, #9
 80038a4:	60da      	str	r2, [r3, #12]
 80038a6:	4b18      	ldr	r3, [pc, #96]	; (8003908 <MX_TIM1_Init+0x98>)
 80038a8:	2200      	movs	r2, #0
 80038aa:	611a      	str	r2, [r3, #16]
 80038ac:	4b16      	ldr	r3, [pc, #88]	; (8003908 <MX_TIM1_Init+0x98>)
 80038ae:	2200      	movs	r2, #0
 80038b0:	615a      	str	r2, [r3, #20]
 80038b2:	4b15      	ldr	r3, [pc, #84]	; (8003908 <MX_TIM1_Init+0x98>)
 80038b4:	2200      	movs	r2, #0
 80038b6:	619a      	str	r2, [r3, #24]
 80038b8:	4813      	ldr	r0, [pc, #76]	; (8003908 <MX_TIM1_Init+0x98>)
 80038ba:	f7fe fb3b 	bl	8001f34 <HAL_TIM_Base_Init>
 80038be:	4603      	mov	r3, r0
 80038c0:	2b00      	cmp	r3, #0
 80038c2:	d001      	beq.n	80038c8 <MX_TIM1_Init+0x58>
 80038c4:	f7ff ff04 	bl	80036d0 <Error_Handler>
 80038c8:	f44f 5380 	mov.w	r3, #4096	; 0x1000
 80038cc:	60bb      	str	r3, [r7, #8]
 80038ce:	f107 0308 	add.w	r3, r7, #8
 80038d2:	4619      	mov	r1, r3
 80038d4:	480c      	ldr	r0, [pc, #48]	; (8003908 <MX_TIM1_Init+0x98>)
 80038d6:	f7fe fe57 	bl	8002588 <HAL_TIM_ConfigClockSource>
 80038da:	4603      	mov	r3, r0
 80038dc:	2b00      	cmp	r3, #0
 80038de:	d001      	beq.n	80038e4 <MX_TIM1_Init+0x74>
 80038e0:	f7ff fef6 	bl	80036d0 <Error_Handler>
 80038e4:	2300      	movs	r3, #0
 80038e6:	603b      	str	r3, [r7, #0]
 80038e8:	2300      	movs	r3, #0
 80038ea:	607b      	str	r3, [r7, #4]
 80038ec:	463b      	mov	r3, r7
 80038ee:	4619      	mov	r1, r3
 80038f0:	4805      	ldr	r0, [pc, #20]	; (8003908 <MX_TIM1_Init+0x98>)
 80038f2:	f7ff f9c9 	bl	8002c88 <HAL_TIMEx_MasterConfigSynchronization>
 80038f6:	4603      	mov	r3, r0
 80038f8:	2b00      	cmp	r3, #0
 80038fa:	d001      	beq.n	8003900 <MX_TIM1_Init+0x90>
 80038fc:	f7ff fee8 	bl	80036d0 <Error_Handler>
 8003900:	bf00      	nop
 8003902:	3718      	adds	r7, #24
 8003904:	46bd      	mov	sp, r7
 8003906:	bd80      	pop	{r7, pc}
 8003908:	2000014c 	.word	0x2000014c
 800390c:	40012c00 	.word	0x40012c00

08003910 <MX_TIM2_Init>:
 8003910:	b580      	push	{r7, lr}
 8003912:	b08c      	sub	sp, #48	; 0x30
 8003914:	af00      	add	r7, sp, #0
 8003916:	f107 030c 	add.w	r3, r7, #12
 800391a:	2224      	movs	r2, #36	; 0x24
 800391c:	2100      	movs	r1, #0
 800391e:	4618      	mov	r0, r3
 8003920:	f000 fa08 	bl	8003d34 <memset>
 8003924:	1d3b      	adds	r3, r7, #4
 8003926:	2200      	movs	r2, #0
 8003928:	601a      	str	r2, [r3, #0]
 800392a:	605a      	str	r2, [r3, #4]
 800392c:	4b21      	ldr	r3, [pc, #132]	; (80039b4 <MX_TIM2_Init+0xa4>)
 800392e:	f04f 4280 	mov.w	r2, #1073741824	; 0x40000000
 8003932:	601a      	str	r2, [r3, #0]
 8003934:	4b1f      	ldr	r3, [pc, #124]	; (80039b4 <MX_TIM2_Init+0xa4>)
 8003936:	2200      	movs	r2, #0
 8003938:	605a      	str	r2, [r3, #4]
 800393a:	4b1e      	ldr	r3, [pc, #120]	; (80039b4 <MX_TIM2_Init+0xa4>)
 800393c:	2200      	movs	r2, #0
 800393e:	609a      	str	r2, [r3, #8]
 8003940:	4b1c      	ldr	r3, [pc, #112]	; (80039b4 <MX_TIM2_Init+0xa4>)
 8003942:	f640 72ff 	movw	r2, #4095	; 0xfff
 8003946:	60da      	str	r2, [r3, #12]
 8003948:	4b1a      	ldr	r3, [pc, #104]	; (80039b4 <MX_TIM2_Init+0xa4>)
 800394a:	2200      	movs	r2, #0
 800394c:	611a      	str	r2, [r3, #16]
 800394e:	4b19      	ldr	r3, [pc, #100]	; (80039b4 <MX_TIM2_Init+0xa4>)
 8003950:	2200      	movs	r2, #0
 8003952:	619a      	str	r2, [r3, #24]
 8003954:	2303      	movs	r3, #3
 8003956:	60fb      	str	r3, [r7, #12]
 8003958:	2300      	movs	r3, #0
 800395a:	613b      	str	r3, [r7, #16]
 800395c:	2301      	movs	r3, #1
 800395e:	617b      	str	r3, [r7, #20]
 8003960:	2300      	movs	r3, #0
 8003962:	61bb      	str	r3, [r7, #24]
 8003964:	230f      	movs	r3, #15
 8003966:	61fb      	str	r3, [r7, #28]
 8003968:	2300      	movs	r3, #0
 800396a:	623b      	str	r3, [r7, #32]
 800396c:	2301      	movs	r3, #1
 800396e:	627b      	str	r3, [r7, #36]	; 0x24
 8003970:	2300      	movs	r3, #0
 8003972:	62bb      	str	r3, [r7, #40]	; 0x28
 8003974:	230f      	movs	r3, #15
 8003976:	62fb      	str	r3, [r7, #44]	; 0x2c
 8003978:	f107 030c 	add.w	r3, r7, #12
 800397c:	4619      	mov	r1, r3
 800397e:	480d      	ldr	r0, [pc, #52]	; (80039b4 <MX_TIM2_Init+0xa4>)
 8003980:	f7fe fba6 	bl	80020d0 <HAL_TIM_Encoder_Init>
 8003984:	4603      	mov	r3, r0
 8003986:	2b00      	cmp	r3, #0
 8003988:	d001      	beq.n	800398e <MX_TIM2_Init+0x7e>
 800398a:	f7ff fea1 	bl	80036d0 <Error_Handler>
 800398e:	2300      	movs	r3, #0
 8003990:	607b      	str	r3, [r7, #4]
 8003992:	2300      	movs	r3, #0
 8003994:	60bb      	str	r3, [r7, #8]
 8003996:	1d3b      	adds	r3, r7, #4
 8003998:	4619      	mov	r1, r3
 800399a:	4806      	ldr	r0, [pc, #24]	; (80039b4 <MX_TIM2_Init+0xa4>)
 800399c:	f7ff f974 	bl	8002c88 <HAL_TIMEx_MasterConfigSynchronization>
 80039a0:	4603      	mov	r3, r0
 80039a2:	2b00      	cmp	r3, #0
 80039a4:	d001      	beq.n	80039aa <MX_TIM2_Init+0x9a>
 80039a6:	f7ff fe93 	bl	80036d0 <Error_Handler>
 80039aa:	bf00      	nop
 80039ac:	3730      	adds	r7, #48	; 0x30
 80039ae:	46bd      	mov	sp, r7
 80039b0:	bd80      	pop	{r7, pc}
 80039b2:	bf00      	nop
 80039b4:	2000018c 	.word	0x2000018c

080039b8 <MX_TIM3_Init>:
 80039b8:	b580      	push	{r7, lr}
 80039ba:	b08a      	sub	sp, #40	; 0x28
 80039bc:	af00      	add	r7, sp, #0
 80039be:	f107 0320 	add.w	r3, r7, #32
 80039c2:	2200      	movs	r2, #0
 80039c4:	601a      	str	r2, [r3, #0]
 80039c6:	605a      	str	r2, [r3, #4]
 80039c8:	1d3b      	adds	r3, r7, #4
 80039ca:	2200      	movs	r2, #0
 80039cc:	601a      	str	r2, [r3, #0]
 80039ce:	605a      	str	r2, [r3, #4]
 80039d0:	609a      	str	r2, [r3, #8]
 80039d2:	60da      	str	r2, [r3, #12]
 80039d4:	611a      	str	r2, [r3, #16]
 80039d6:	615a      	str	r2, [r3, #20]
 80039d8:	619a      	str	r2, [r3, #24]
 80039da:	4b21      	ldr	r3, [pc, #132]	; (8003a60 <MX_TIM3_Init+0xa8>)
 80039dc:	4a21      	ldr	r2, [pc, #132]	; (8003a64 <MX_TIM3_Init+0xac>)
 80039de:	601a      	str	r2, [r3, #0]
 80039e0:	4b1f      	ldr	r3, [pc, #124]	; (8003a60 <MX_TIM3_Init+0xa8>)
 80039e2:	220f      	movs	r2, #15
 80039e4:	605a      	str	r2, [r3, #4]
 80039e6:	4b1e      	ldr	r3, [pc, #120]	; (8003a60 <MX_TIM3_Init+0xa8>)
 80039e8:	2200      	movs	r2, #0
 80039ea:	609a      	str	r2, [r3, #8]
 80039ec:	4b1c      	ldr	r3, [pc, #112]	; (8003a60 <MX_TIM3_Init+0xa8>)
 80039ee:	22c7      	movs	r2, #199	; 0xc7
 80039f0:	60da      	str	r2, [r3, #12]
 80039f2:	4b1b      	ldr	r3, [pc, #108]	; (8003a60 <MX_TIM3_Init+0xa8>)
 80039f4:	2200      	movs	r2, #0
 80039f6:	611a      	str	r2, [r3, #16]
 80039f8:	4b19      	ldr	r3, [pc, #100]	; (8003a60 <MX_TIM3_Init+0xa8>)
 80039fa:	2200      	movs	r2, #0
 80039fc:	619a      	str	r2, [r3, #24]
 80039fe:	4818      	ldr	r0, [pc, #96]	; (8003a60 <MX_TIM3_Init+0xa8>)
 8003a00:	f7fe fb09 	bl	8002016 <HAL_TIM_PWM_Init>
 8003a04:	4603      	mov	r3, r0
 8003a06:	2b00      	cmp	r3, #0
 8003a08:	d001      	beq.n	8003a0e <MX_TIM3_Init+0x56>
 8003a0a:	f7ff fe61 	bl	80036d0 <Error_Handler>
 8003a0e:	2300      	movs	r3, #0
 8003a10:	623b      	str	r3, [r7, #32]
 8003a12:	2300      	movs	r3, #0
 8003a14:	627b      	str	r3, [r7, #36]	; 0x24
 8003a16:	f107 0320 	add.w	r3, r7, #32
 8003a1a:	4619      	mov	r1, r3
 8003a1c:	4810      	ldr	r0, [pc, #64]	; (8003a60 <MX_TIM3_Init+0xa8>)
 8003a1e:	f7ff f933 	bl	8002c88 <HAL_TIMEx_MasterConfigSynchronization>
 8003a22:	4603      	mov	r3, r0
 8003a24:	2b00      	cmp	r3, #0
 8003a26:	d001      	beq.n	8003a2c <MX_TIM3_Init+0x74>
 8003a28:	f7ff fe52 	bl	80036d0 <Error_Handler>
 8003a2c:	2360      	movs	r3, #96	; 0x60
 8003a2e:	607b      	str	r3, [r7, #4]
 8003a30:	2300      	movs	r3, #0
 8003a32:	60bb      	str	r3, [r7, #8]
 8003a34:	2300      	movs	r3, #0
 8003a36:	60fb      	str	r3, [r7, #12]
 8003a38:	2300      	movs	r3, #0
 8003a3a:	617b      	str	r3, [r7, #20]
 8003a3c:	1d3b      	adds	r3, r7, #4
 8003a3e:	2208      	movs	r2, #8
 8003a40:	4619      	mov	r1, r3
 8003a42:	4807      	ldr	r0, [pc, #28]	; (8003a60 <MX_TIM3_Init+0xa8>)
 8003a44:	f7fe fcda 	bl	80023fc <HAL_TIM_PWM_ConfigChannel>
 8003a48:	4603      	mov	r3, r0
 8003a4a:	2b00      	cmp	r3, #0
 8003a4c:	d001      	beq.n	8003a52 <MX_TIM3_Init+0x9a>
 8003a4e:	f7ff fe3f 	bl	80036d0 <Error_Handler>
 8003a52:	4803      	ldr	r0, [pc, #12]	; (8003a60 <MX_TIM3_Init+0xa8>)
 8003a54:	f000 f8f2 	bl	8003c3c <HAL_TIM_MspPostInit>
 8003a58:	bf00      	nop
 8003a5a:	3728      	adds	r7, #40	; 0x28
 8003a5c:	46bd      	mov	sp, r7
 8003a5e:	bd80      	pop	{r7, pc}
 8003a60:	2000010c 	.word	0x2000010c
 8003a64:	40000400 	.word	0x40000400

08003a68 <MX_TIM4_Init>:
 8003a68:	b580      	push	{r7, lr}
 8003a6a:	b086      	sub	sp, #24
 8003a6c:	af00      	add	r7, sp, #0
 8003a6e:	f107 0308 	add.w	r3, r7, #8
 8003a72:	2200      	movs	r2, #0
 8003a74:	601a      	str	r2, [r3, #0]
 8003a76:	605a      	str	r2, [r3, #4]
 8003a78:	609a      	str	r2, [r3, #8]
 8003a7a:	60da      	str	r2, [r3, #12]
 8003a7c:	463b      	mov	r3, r7
 8003a7e:	2200      	movs	r2, #0
 8003a80:	601a      	str	r2, [r3, #0]
 8003a82:	605a      	str	r2, [r3, #4]
 8003a84:	4b1d      	ldr	r3, [pc, #116]	; (8003afc <MX_TIM4_Init+0x94>)
 8003a86:	4a1e      	ldr	r2, [pc, #120]	; (8003b00 <MX_TIM4_Init+0x98>)
 8003a88:	601a      	str	r2, [r3, #0]
 8003a8a:	4b1c      	ldr	r3, [pc, #112]	; (8003afc <MX_TIM4_Init+0x94>)
 8003a8c:	f240 623f 	movw	r2, #1599	; 0x63f
 8003a90:	605a      	str	r2, [r3, #4]
 8003a92:	4b1a      	ldr	r3, [pc, #104]	; (8003afc <MX_TIM4_Init+0x94>)
 8003a94:	2200      	movs	r2, #0
 8003a96:	609a      	str	r2, [r3, #8]
 8003a98:	4b18      	ldr	r3, [pc, #96]	; (8003afc <MX_TIM4_Init+0x94>)
 8003a9a:	f242 720f 	movw	r2, #9999	; 0x270f
 8003a9e:	60da      	str	r2, [r3, #12]
 8003aa0:	4b16      	ldr	r3, [pc, #88]	; (8003afc <MX_TIM4_Init+0x94>)
 8003aa2:	2200      	movs	r2, #0
 8003aa4:	611a      	str	r2, [r3, #16]
 8003aa6:	4b15      	ldr	r3, [pc, #84]	; (8003afc <MX_TIM4_Init+0x94>)
 8003aa8:	2200      	movs	r2, #0
 8003aaa:	619a      	str	r2, [r3, #24]
 8003aac:	4813      	ldr	r0, [pc, #76]	; (8003afc <MX_TIM4_Init+0x94>)
 8003aae:	f7fe fa41 	bl	8001f34 <HAL_TIM_Base_Init>
 8003ab2:	4603      	mov	r3, r0
 8003ab4:	2b00      	cmp	r3, #0
 8003ab6:	d001      	beq.n	8003abc <MX_TIM4_Init+0x54>
 8003ab8:	f7ff fe0a 	bl	80036d0 <Error_Handler>
 8003abc:	f44f 5380 	mov.w	r3, #4096	; 0x1000
 8003ac0:	60bb      	str	r3, [r7, #8]
 8003ac2:	f107 0308 	add.w	r3, r7, #8
 8003ac6:	4619      	mov	r1, r3
 8003ac8:	480c      	ldr	r0, [pc, #48]	; (8003afc <MX_TIM4_Init+0x94>)
 8003aca:	f7fe fd5d 	bl	8002588 <HAL_TIM_ConfigClockSource>
 8003ace:	4603      	mov	r3, r0
 8003ad0:	2b00      	cmp	r3, #0
 8003ad2:	d001      	beq.n	8003ad8 <MX_TIM4_Init+0x70>
 8003ad4:	f7ff fdfc 	bl	80036d0 <Error_Handler>
 8003ad8:	2300      	movs	r3, #0
 8003ada:	603b      	str	r3, [r7, #0]
 8003adc:	2300      	movs	r3, #0
 8003ade:	607b      	str	r3, [r7, #4]
 8003ae0:	463b      	mov	r3, r7
 8003ae2:	4619      	mov	r1, r3
 8003ae4:	4805      	ldr	r0, [pc, #20]	; (8003afc <MX_TIM4_Init+0x94>)
 8003ae6:	f7ff f8cf 	bl	8002c88 <HAL_TIMEx_MasterConfigSynchronization>
 8003aea:	4603      	mov	r3, r0
 8003aec:	2b00      	cmp	r3, #0
 8003aee:	d001      	beq.n	8003af4 <MX_TIM4_Init+0x8c>
 8003af0:	f7ff fdee 	bl	80036d0 <Error_Handler>
 8003af4:	bf00      	nop
 8003af6:	3718      	adds	r7, #24
 8003af8:	46bd      	mov	sp, r7
 8003afa:	bd80      	pop	{r7, pc}
 8003afc:	200000cc 	.word	0x200000cc
 8003b00:	40000800 	.word	0x40000800

08003b04 <HAL_TIM_Base_MspInit>:
 8003b04:	b580      	push	{r7, lr}
 8003b06:	b084      	sub	sp, #16
 8003b08:	af00      	add	r7, sp, #0
 8003b0a:	6078      	str	r0, [r7, #4]
 8003b0c:	687b      	ldr	r3, [r7, #4]
 8003b0e:	681b      	ldr	r3, [r3, #0]
 8003b10:	4a1a      	ldr	r2, [pc, #104]	; (8003b7c <HAL_TIM_Base_MspInit+0x78>)
 8003b12:	4293      	cmp	r3, r2
 8003b14:	d114      	bne.n	8003b40 <HAL_TIM_Base_MspInit+0x3c>
 8003b16:	4b1a      	ldr	r3, [pc, #104]	; (8003b80 <HAL_TIM_Base_MspInit+0x7c>)
 8003b18:	699b      	ldr	r3, [r3, #24]
 8003b1a:	4a19      	ldr	r2, [pc, #100]	; (8003b80 <HAL_TIM_Base_MspInit+0x7c>)
 8003b1c:	f443 6300 	orr.w	r3, r3, #2048	; 0x800
 8003b20:	6193      	str	r3, [r2, #24]
 8003b22:	4b17      	ldr	r3, [pc, #92]	; (8003b80 <HAL_TIM_Base_MspInit+0x7c>)
 8003b24:	699b      	ldr	r3, [r3, #24]
 8003b26:	f403 6300 	and.w	r3, r3, #2048	; 0x800
 8003b2a:	60fb      	str	r3, [r7, #12]
 8003b2c:	68fb      	ldr	r3, [r7, #12]
 8003b2e:	2200      	movs	r2, #0
 8003b30:	2103      	movs	r1, #3
 8003b32:	2019      	movs	r0, #25
 8003b34:	f7fd f8bd 	bl	8000cb2 <HAL_NVIC_SetPriority>
 8003b38:	2019      	movs	r0, #25
 8003b3a:	f7fd f8d6 	bl	8000cea <HAL_NVIC_EnableIRQ>
 8003b3e:	e018      	b.n	8003b72 <HAL_TIM_Base_MspInit+0x6e>
 8003b40:	687b      	ldr	r3, [r7, #4]
 8003b42:	681b      	ldr	r3, [r3, #0]
 8003b44:	4a0f      	ldr	r2, [pc, #60]	; (8003b84 <HAL_TIM_Base_MspInit+0x80>)
 8003b46:	4293      	cmp	r3, r2
 8003b48:	d113      	bne.n	8003b72 <HAL_TIM_Base_MspInit+0x6e>
 8003b4a:	4b0d      	ldr	r3, [pc, #52]	; (8003b80 <HAL_TIM_Base_MspInit+0x7c>)
 8003b4c:	69db      	ldr	r3, [r3, #28]
 8003b4e:	4a0c      	ldr	r2, [pc, #48]	; (8003b80 <HAL_TIM_Base_MspInit+0x7c>)
 8003b50:	f043 0304 	orr.w	r3, r3, #4
 8003b54:	61d3      	str	r3, [r2, #28]
 8003b56:	4b0a      	ldr	r3, [pc, #40]	; (8003b80 <HAL_TIM_Base_MspInit+0x7c>)
 8003b58:	69db      	ldr	r3, [r3, #28]
 8003b5a:	f003 0304 	and.w	r3, r3, #4
 8003b5e:	60bb      	str	r3, [r7, #8]
 8003b60:	68bb      	ldr	r3, [r7, #8]
 8003b62:	2200      	movs	r2, #0
 8003b64:	2108      	movs	r1, #8
 8003b66:	201e      	movs	r0, #30
 8003b68:	f7fd f8a3 	bl	8000cb2 <HAL_NVIC_SetPriority>
 8003b6c:	201e      	movs	r0, #30
 8003b6e:	f7fd f8bc 	bl	8000cea <HAL_NVIC_EnableIRQ>
 8003b72:	bf00      	nop
 8003b74:	3710      	adds	r7, #16
 8003b76:	46bd      	mov	sp, r7
 8003b78:	bd80      	pop	{r7, pc}
 8003b7a:	bf00      	nop
 8003b7c:	40012c00 	.word	0x40012c00
 8003b80:	40021000 	.word	0x40021000
 8003b84:	40000800 	.word	0x40000800

08003b88 <HAL_TIM_Encoder_MspInit>:
 8003b88:	b580      	push	{r7, lr}
 8003b8a:	b088      	sub	sp, #32
 8003b8c:	af00      	add	r7, sp, #0
 8003b8e:	6078      	str	r0, [r7, #4]
 8003b90:	f107 0310 	add.w	r3, r7, #16
 8003b94:	2200      	movs	r2, #0
 8003b96:	601a      	str	r2, [r3, #0]
 8003b98:	605a      	str	r2, [r3, #4]
 8003b9a:	609a      	str	r2, [r3, #8]
 8003b9c:	60da      	str	r2, [r3, #12]
 8003b9e:	687b      	ldr	r3, [r7, #4]
 8003ba0:	681b      	ldr	r3, [r3, #0]
 8003ba2:	f1b3 4f80 	cmp.w	r3, #1073741824	; 0x40000000
 8003ba6:	d123      	bne.n	8003bf0 <HAL_TIM_Encoder_MspInit+0x68>
 8003ba8:	4b13      	ldr	r3, [pc, #76]	; (8003bf8 <HAL_TIM_Encoder_MspInit+0x70>)
 8003baa:	69db      	ldr	r3, [r3, #28]
 8003bac:	4a12      	ldr	r2, [pc, #72]	; (8003bf8 <HAL_TIM_Encoder_MspInit+0x70>)
 8003bae:	f043 0301 	orr.w	r3, r3, #1
 8003bb2:	61d3      	str	r3, [r2, #28]
 8003bb4:	4b10      	ldr	r3, [pc, #64]	; (8003bf8 <HAL_TIM_Encoder_MspInit+0x70>)
 8003bb6:	69db      	ldr	r3, [r3, #28]
 8003bb8:	f003 0301 	and.w	r3, r3, #1
 8003bbc:	60fb      	str	r3, [r7, #12]
 8003bbe:	68fb      	ldr	r3, [r7, #12]
 8003bc0:	4b0d      	ldr	r3, [pc, #52]	; (8003bf8 <HAL_TIM_Encoder_MspInit+0x70>)
 8003bc2:	699b      	ldr	r3, [r3, #24]
 8003bc4:	4a0c      	ldr	r2, [pc, #48]	; (8003bf8 <HAL_TIM_Encoder_MspInit+0x70>)
 8003bc6:	f043 0304 	orr.w	r3, r3, #4
 8003bca:	6193      	str	r3, [r2, #24]
 8003bcc:	4b0a      	ldr	r3, [pc, #40]	; (8003bf8 <HAL_TIM_Encoder_MspInit+0x70>)
 8003bce:	699b      	ldr	r3, [r3, #24]
 8003bd0:	f003 0304 	and.w	r3, r3, #4
 8003bd4:	60bb      	str	r3, [r7, #8]
 8003bd6:	68bb      	ldr	r3, [r7, #8]
 8003bd8:	2303      	movs	r3, #3
 8003bda:	613b      	str	r3, [r7, #16]
 8003bdc:	2300      	movs	r3, #0
 8003bde:	617b      	str	r3, [r7, #20]
 8003be0:	2301      	movs	r3, #1
 8003be2:	61bb      	str	r3, [r7, #24]
 8003be4:	f107 0310 	add.w	r3, r7, #16
 8003be8:	4619      	mov	r1, r3
 8003bea:	4804      	ldr	r0, [pc, #16]	; (8003bfc <HAL_TIM_Encoder_MspInit+0x74>)
 8003bec:	f7fd fa86 	bl	80010fc <HAL_GPIO_Init>
 8003bf0:	bf00      	nop
 8003bf2:	3720      	adds	r7, #32
 8003bf4:	46bd      	mov	sp, r7
 8003bf6:	bd80      	pop	{r7, pc}
 8003bf8:	40021000 	.word	0x40021000
 8003bfc:	40010800 	.word	0x40010800

08003c00 <HAL_TIM_PWM_MspInit>:
 8003c00:	b480      	push	{r7}
 8003c02:	b085      	sub	sp, #20
 8003c04:	af00      	add	r7, sp, #0
 8003c06:	6078      	str	r0, [r7, #4]
 8003c08:	687b      	ldr	r3, [r7, #4]
 8003c0a:	681b      	ldr	r3, [r3, #0]
 8003c0c:	4a09      	ldr	r2, [pc, #36]	; (8003c34 <HAL_TIM_PWM_MspInit+0x34>)
 8003c0e:	4293      	cmp	r3, r2
 8003c10:	d10b      	bne.n	8003c2a <HAL_TIM_PWM_MspInit+0x2a>
 8003c12:	4b09      	ldr	r3, [pc, #36]	; (8003c38 <HAL_TIM_PWM_MspInit+0x38>)
 8003c14:	69db      	ldr	r3, [r3, #28]
 8003c16:	4a08      	ldr	r2, [pc, #32]	; (8003c38 <HAL_TIM_PWM_MspInit+0x38>)
 8003c18:	f043 0302 	orr.w	r3, r3, #2
 8003c1c:	61d3      	str	r3, [r2, #28]
 8003c1e:	4b06      	ldr	r3, [pc, #24]	; (8003c38 <HAL_TIM_PWM_MspInit+0x38>)
 8003c20:	69db      	ldr	r3, [r3, #28]
 8003c22:	f003 0302 	and.w	r3, r3, #2
 8003c26:	60fb      	str	r3, [r7, #12]
 8003c28:	68fb      	ldr	r3, [r7, #12]
 8003c2a:	bf00      	nop
 8003c2c:	3714      	adds	r7, #20
 8003c2e:	46bd      	mov	sp, r7
 8003c30:	bc80      	pop	{r7}
 8003c32:	4770      	bx	lr
 8003c34:	40000400 	.word	0x40000400
 8003c38:	40021000 	.word	0x40021000

08003c3c <HAL_TIM_MspPostInit>:
 8003c3c:	b580      	push	{r7, lr}
 8003c3e:	b088      	sub	sp, #32
 8003c40:	af00      	add	r7, sp, #0
 8003c42:	6078      	str	r0, [r7, #4]
 8003c44:	f107 0310 	add.w	r3, r7, #16
 8003c48:	2200      	movs	r2, #0
 8003c4a:	601a      	str	r2, [r3, #0]
 8003c4c:	605a      	str	r2, [r3, #4]
 8003c4e:	609a      	str	r2, [r3, #8]
 8003c50:	60da      	str	r2, [r3, #12]
 8003c52:	687b      	ldr	r3, [r7, #4]
 8003c54:	681b      	ldr	r3, [r3, #0]
 8003c56:	4a0f      	ldr	r2, [pc, #60]	; (8003c94 <HAL_TIM_MspPostInit+0x58>)
 8003c58:	4293      	cmp	r3, r2
 8003c5a:	d117      	bne.n	8003c8c <HAL_TIM_MspPostInit+0x50>
 8003c5c:	4b0e      	ldr	r3, [pc, #56]	; (8003c98 <HAL_TIM_MspPostInit+0x5c>)
 8003c5e:	699b      	ldr	r3, [r3, #24]
 8003c60:	4a0d      	ldr	r2, [pc, #52]	; (8003c98 <HAL_TIM_MspPostInit+0x5c>)
 8003c62:	f043 0308 	orr.w	r3, r3, #8
 8003c66:	6193      	str	r3, [r2, #24]
 8003c68:	4b0b      	ldr	r3, [pc, #44]	; (8003c98 <HAL_TIM_MspPostInit+0x5c>)
 8003c6a:	699b      	ldr	r3, [r3, #24]
 8003c6c:	f003 0308 	and.w	r3, r3, #8
 8003c70:	60fb      	str	r3, [r7, #12]
 8003c72:	68fb      	ldr	r3, [r7, #12]
 8003c74:	2301      	movs	r3, #1
 8003c76:	613b      	str	r3, [r7, #16]
 8003c78:	2302      	movs	r3, #2
 8003c7a:	617b      	str	r3, [r7, #20]
 8003c7c:	2302      	movs	r3, #2
 8003c7e:	61fb      	str	r3, [r7, #28]
 8003c80:	f107 0310 	add.w	r3, r7, #16
 8003c84:	4619      	mov	r1, r3
 8003c86:	4805      	ldr	r0, [pc, #20]	; (8003c9c <HAL_TIM_MspPostInit+0x60>)
 8003c88:	f7fd fa38 	bl	80010fc <HAL_GPIO_Init>
 8003c8c:	bf00      	nop
 8003c8e:	3720      	adds	r7, #32
 8003c90:	46bd      	mov	sp, r7
 8003c92:	bd80      	pop	{r7, pc}
 8003c94:	40000400 	.word	0x40000400
 8003c98:	40021000 	.word	0x40021000
 8003c9c:	40010c00 	.word	0x40010c00

08003ca0 <Reset_Handler>:
 8003ca0:	2100      	movs	r1, #0
 8003ca2:	e003      	b.n	8003cac <LoopCopyDataInit>

08003ca4 <CopyDataInit>:
 8003ca4:	4b0b      	ldr	r3, [pc, #44]	; (8003cd4 <LoopFillZerobss+0x14>)
 8003ca6:	585b      	ldr	r3, [r3, r1]
 8003ca8:	5043      	str	r3, [r0, r1]
 8003caa:	3104      	adds	r1, #4

08003cac <LoopCopyDataInit>:
 8003cac:	480a      	ldr	r0, [pc, #40]	; (8003cd8 <LoopFillZerobss+0x18>)
 8003cae:	4b0b      	ldr	r3, [pc, #44]	; (8003cdc <LoopFillZerobss+0x1c>)
 8003cb0:	1842      	adds	r2, r0, r1
 8003cb2:	429a      	cmp	r2, r3
 8003cb4:	d3f6      	bcc.n	8003ca4 <CopyDataInit>
 8003cb6:	4a0a      	ldr	r2, [pc, #40]	; (8003ce0 <LoopFillZerobss+0x20>)
 8003cb8:	e002      	b.n	8003cc0 <LoopFillZerobss>

08003cba <FillZerobss>:
 8003cba:	2300      	movs	r3, #0
 8003cbc:	f842 3b04 	str.w	r3, [r2], #4

08003cc0 <LoopFillZerobss>:
 8003cc0:	4b08      	ldr	r3, [pc, #32]	; (8003ce4 <LoopFillZerobss+0x24>)
 8003cc2:	429a      	cmp	r2, r3
 8003cc4:	d3f9      	bcc.n	8003cba <FillZerobss>
 8003cc6:	f7ff fd9f 	bl	8003808 <SystemInit>
 8003cca:	f000 f80f 	bl	8003cec <__libc_init_array>
 8003cce:	f7ff f9b3 	bl	8003038 <main>
 8003cd2:	4770      	bx	lr
 8003cd4:	08003da4 	.word	0x08003da4
 8003cd8:	20000000 	.word	0x20000000
 8003cdc:	20000010 	.word	0x20000010
 8003ce0:	20000010 	.word	0x20000010
 8003ce4:	200001cc 	.word	0x200001cc

08003ce8 <ADC1_2_IRQHandler>:
 8003ce8:	e7fe      	b.n	8003ce8 <ADC1_2_IRQHandler>
	...

08003cec <__libc_init_array>:
 8003cec:	b570      	push	{r4, r5, r6, lr}
 8003cee:	2500      	movs	r5, #0
 8003cf0:	4e0c      	ldr	r6, [pc, #48]	; (8003d24 <__libc_init_array+0x38>)
 8003cf2:	4c0d      	ldr	r4, [pc, #52]	; (8003d28 <__libc_init_array+0x3c>)
 8003cf4:	1ba4      	subs	r4, r4, r6
 8003cf6:	10a4      	asrs	r4, r4, #2
 8003cf8:	42a5      	cmp	r5, r4
 8003cfa:	d109      	bne.n	8003d10 <__libc_init_array+0x24>
 8003cfc:	f000 f822 	bl	8003d44 <_init>
 8003d00:	2500      	movs	r5, #0
 8003d02:	4e0a      	ldr	r6, [pc, #40]	; (8003d2c <__libc_init_array+0x40>)
 8003d04:	4c0a      	ldr	r4, [pc, #40]	; (8003d30 <__libc_init_array+0x44>)
 8003d06:	1ba4      	subs	r4, r4, r6
 8003d08:	10a4      	asrs	r4, r4, #2
 8003d0a:	42a5      	cmp	r5, r4
 8003d0c:	d105      	bne.n	8003d1a <__libc_init_array+0x2e>
 8003d0e:	bd70      	pop	{r4, r5, r6, pc}
 8003d10:	f856 3025 	ldr.w	r3, [r6, r5, lsl #2]
 8003d14:	4798      	blx	r3
 8003d16:	3501      	adds	r5, #1
 8003d18:	e7ee      	b.n	8003cf8 <__libc_init_array+0xc>
 8003d1a:	f856 3025 	ldr.w	r3, [r6, r5, lsl #2]
 8003d1e:	4798      	blx	r3
 8003d20:	3501      	adds	r5, #1
 8003d22:	e7f2      	b.n	8003d0a <__libc_init_array+0x1e>
 8003d24:	08003d9c 	.word	0x08003d9c
 8003d28:	08003d9c 	.word	0x08003d9c
 8003d2c:	08003d9c 	.word	0x08003d9c
 8003d30:	08003da0 	.word	0x08003da0

08003d34 <memset>:
 8003d34:	4603      	mov	r3, r0
 8003d36:	4402      	add	r2, r0
 8003d38:	4293      	cmp	r3, r2
 8003d3a:	d100      	bne.n	8003d3e <memset+0xa>
 8003d3c:	4770      	bx	lr
 8003d3e:	f803 1b01 	strb.w	r1, [r3], #1
 8003d42:	e7f9      	b.n	8003d38 <memset+0x4>

08003d44 <_init>:
 8003d44:	b5f8      	push	{r3, r4, r5, r6, r7, lr}
 8003d46:	bf00      	nop
 8003d48:	bcf8      	pop	{r3, r4, r5, r6, r7}
 8003d4a:	bc08      	pop	{r3}
 8003d4c:	469e      	mov	lr, r3
 8003d4e:	4770      	bx	lr

08003d50 <_fini>:
 8003d50:	b5f8      	push	{r3, r4, r5, r6, r7, lr}
 8003d52:	bf00      	nop
 8003d54:	bcf8      	pop	{r3, r4, r5, r6, r7}
 8003d56:	bc08      	pop	{r3}
 8003d58:	469e      	mov	lr, r3
 8003d5a:	4770      	bx	lr
